ARM GAS  C:\Users\Cedric\AppData\Local\Temp\cctuqFaR.s 			page 1


   1              		.cpu cortex-m0
   2              		.fpu softvfp
   3              		.eabi_attribute 20, 1
   4              		.eabi_attribute 21, 1
   5              		.eabi_attribute 23, 3
   6              		.eabi_attribute 24, 1
   7              		.eabi_attribute 25, 1
   8              		.eabi_attribute 26, 1
   9              		.eabi_attribute 30, 6
  10              		.eabi_attribute 34, 0
  11              		.eabi_attribute 18, 4
  12              		.code	16
  13              		.file	"main.c"
  14              		.text
  15              	.Ltext0:
  16              		.cfi_sections	.debug_frame
  17              		.global	messagesl1
  18              		.data
  19              		.align	2
  20              		.type	messagesl1, %object
  21              		.size	messagesl1, 170
  22              	messagesl1:
  23 0000 20202020 		.ascii	"     ENSEA      \000"
  23      20454E53 
  23      45412020 
  23      20202020 
  23      00
  24 0011 20204361 		.ascii	"  Cadeau  pour  \000"
  24      64656175 
  24      2020706F 
  24      75722020 
  24      00
  25 0022 20204C65 		.ascii	"  Le numerique  \000"
  25      206E756D 
  25      65726971 
  25      75652020 
  25      00
  26 0033 2020204E 		.ascii	"   Notre Ecole  \000"
  26      6F747265 
  26      2045636F 
  26      6C652020 
  26      00
  27 0044 20202046 		.ascii	"   Fier d'etre  \000"
  27      69657220 
  27      64276574 
  27      72652020 
  27      00
  28 0055 4368657A 		.ascii	"Chez nous l'elec\000"
  28      206E6F75 
  28      73206C27 
  28      656C6563 
  28      00
  29 0066 20205472 		.ascii	"  Trust me I'm  \000"
  29      75737420 
  29      6D652049 
  29      276D2020 
  29      00
ARM GAS  C:\Users\Cedric\AppData\Local\Temp\cctuqFaR.s 			page 2


  30 0077 20205669 		.ascii	"  Vive l'ENSEA  \000"
  30      7665206C 
  30      27454E53 
  30      45412020 
  30      00
  31 0088 436F6E63 		.ascii	"Concu et realise\000"
  31      75206574 
  31      20726561 
  31      6C697365 
  31      00
  32 0099 20546F75 		.ascii	" Toute l'ENSEA  \000"
  32      7465206C 
  32      27454E53 
  32      45412020 
  32      00
  33              		.global	messagesl2
  34 00aa 0000     		.align	2
  35              		.type	messagesl2, %object
  36              		.size	messagesl2, 170
  37              	messagesl2:
  38 00ac 20202050 		.ascii	"   PROMO 2017   \000"
  38      524F4D4F 
  38      20323031 
  38      37202020 
  38      00
  39 00bd 20417865 		.ascii	" Axelle Lemaire \000"
  39      6C6C6520 
  39      4C656D61 
  39      69726520 
  39      00
  40 00ce 2061746F 		.ascii	" atout et force \000"
  40      75742065 
  40      7420666F 
  40      72636520 
  40      00
  41 00df 20204772 		.ascii	"  Grande Ecole  \000"
  41      616E6465 
  41      2045636F 
  41      6C652020 
  41      00
  42 00f0 20202020 		.ascii	"    ENSEArque   \000"
  42      454E5345 
  42      41727175 
  42      65202020 
  42      00
  43 0101 20204320 		.ascii	"  C une coutume \000"
  43      756E6520 
  43      636F7574 
  43      756D6520 
  43      00
  44 0112 2020616E 		.ascii	"  an Engineer   \000"
  44      20456E67 
  44      696E6565 
  44      72202020 
  44      00
  45 0123 20203062 		.ascii	"  0b0000101010  \000"
  45      30303030 
ARM GAS  C:\Users\Cedric\AppData\Local\Temp\cctuqFaR.s 			page 3


  45      31303130 
  45      31302020 
  45      00
  46 0134 20706172 		.ascii	" par ARES ENSEA \000"
  46      20415245 
  46      5320454E 
  46      53454120 
  46      00
  47 0145 2020566F 		.ascii	"  Vous remercie \000"
  47      75732072 
  47      656D6572 
  47      63696520 
  47      00
  48              		.global	__aeabi_idivmod
  49              		.section	.text.InterruptHandler1,"ax",%progbits
  50              		.align	2
  51              		.global	InterruptHandler1
  52              		.code	16
  53              		.thumb_func
  54              		.type	InterruptHandler1, %function
  55              	InterruptHandler1:
  56              	.LFB33:
  57              		.file 1 ".\\main.c"
   1:.\main.c      **** /* ========================================
   2:.\main.c      ****  *
   3:.\main.c      ****  * Copyright ENSEA, 2014
   4:.\main.c      ****  * All Rights Reserved
   5:.\main.c      ****  * UNPUBLISHED, LICENSED SOFTWARE.
   6:.\main.c      ****  * Authors : Cédric PILLET & Antoine TAUVEL
   7:.\main.c      ****  * CONFIDENTIAL AND PROPRIETARY INFORMATION
   8:.\main.c      ****  * WHICH IS THE PROPERTY OF ENSEA.
   9:.\main.c      ****  *
  10:.\main.c      ****  * ========================================
  11:.\main.c      **** */
  12:.\main.c      **** #include <project.h>
  13:.\main.c      **** #define period 9800
  14:.\main.c      **** #define period1 4
  15:.\main.c      **** #define period2 10
  16:.\main.c      **** #define period3 7
  17:.\main.c      **** #define nbmessages 10
  18:.\main.c      **** 
  19:.\main.c      **** char messagesl1[][17] = { 
  20:.\main.c      ****   "     ENSEA      ",
  21:.\main.c      ****   "  Cadeau  pour  ",
  22:.\main.c      ****   "  Le numerique  ",
  23:.\main.c      ****   "   Notre Ecole  ",
  24:.\main.c      ****   "   Fier d'etre  ",
  25:.\main.c      ****   "Chez nous l'elec",
  26:.\main.c      ****   "  Trust me I'm  ",
  27:.\main.c      ****   "  Vive l'ENSEA  ",
  28:.\main.c      ****   "Concu et realise",
  29:.\main.c      ****   " Toute l'ENSEA  "
  30:.\main.c      **** };
  31:.\main.c      **** char messagesl2[][17] = { 
  32:.\main.c      ****   "   PROMO 2017   ",
  33:.\main.c      ****   " Axelle Lemaire ",
  34:.\main.c      ****   " atout et force ",
ARM GAS  C:\Users\Cedric\AppData\Local\Temp\cctuqFaR.s 			page 4


  35:.\main.c      ****   "  Grande Ecole  ",
  36:.\main.c      ****   "    ENSEArque   ",
  37:.\main.c      ****   "  C une coutume ",
  38:.\main.c      ****   "  an Engineer   ",
  39:.\main.c      ****   "  0b0000101010  ",
  40:.\main.c      ****   " par ARES ENSEA ",
  41:.\main.c      ****   "  Vous remercie "
  42:.\main.c      **** };
  43:.\main.c      **** 
  44:.\main.c      **** CY_ISR(InterruptHandler1)
  45:.\main.c      **** {
  58              		.loc 1 45 0
  59              		.cfi_startproc
  60 0000 80B5     		push	{r7, lr}
  61              	.LCFI0:
  62              		.cfi_def_cfa_offset 8
  63              		.cfi_offset 7, -8
  64              		.cfi_offset 14, -4
  65 0002 00AF     		add	r7, sp, #0
  66              	.LCFI1:
  67              		.cfi_def_cfa_register 7
  46:.\main.c      **** 	static int cpt1=0;
  47:.\main.c      **** 	static int cmp1=0;
  48:.\main.c      ****     static int updown1=1;
  49:.\main.c      ****     
  50:.\main.c      ****     cpt1=(cpt1+1)%period1;
  68              		.loc 1 50 0
  69 0004 244B     		ldr	r3, .L7
  70 0006 1B68     		ldr	r3, [r3]
  71 0008 5A1C     		add	r2, r3, #1
  72 000a 244B     		ldr	r3, .L7+4
  73 000c 1340     		and	r3, r2
  74 000e 04D5     		bpl	.L2
  75 0010 013B     		sub	r3, r3, #1
  76 0012 0422     		mov	r2, #4
  77 0014 5242     		neg	r2, r2
  78 0016 1343     		orr	r3, r2
  79 0018 0133     		add	r3, r3, #1
  80              	.L2:
  81 001a 1A1C     		mov	r2, r3
  82 001c 1E4B     		ldr	r3, .L7
  83 001e 1A60     		str	r2, [r3]
  51:.\main.c      **** //    /* Clear TC Inerrupt */
  52:.\main.c      ****    	PWM_1_ClearInterrupt(PWM_1_INTR_MASK_TC);
  84              		.loc 1 52 0
  85 0020 0120     		mov	r0, #1
  86 0022 FFF7FEFF 		bl	PWM_1_ClearInterrupt
  53:.\main.c      **** //    
  54:.\main.c      **** //	/* Increment the Compare for LED brighrness decrease */ 
  55:.\main.c      ****     if (cpt1==0){
  87              		.loc 1 55 0
  88 0026 1C4B     		ldr	r3, .L7
  89 0028 1B68     		ldr	r3, [r3]
  90 002a 002B     		cmp	r3, #0
  91 002c 32D1     		bne	.L1
  56:.\main.c      ****         cmp1 = (cmp1+2) %period;
  92              		.loc 1 56 0
ARM GAS  C:\Users\Cedric\AppData\Local\Temp\cctuqFaR.s 			page 5


  93 002e 1C4B     		ldr	r3, .L7+8
  94 0030 1B68     		ldr	r3, [r3]
  95 0032 0233     		add	r3, r3, #2
  96 0034 181C     		mov	r0, r3
  97 0036 1B49     		ldr	r1, .L7+12
  98 0038 FFF7FEFF 		bl	__aeabi_idivmod
  99 003c 0B1C     		mov	r3, r1
 100 003e 1A1C     		mov	r2, r3
 101 0040 174B     		ldr	r3, .L7+8
 102 0042 1A60     		str	r2, [r3]
  57:.\main.c      ****         if(cmp1 ==0){
 103              		.loc 1 57 0
 104 0044 164B     		ldr	r3, .L7+8
 105 0046 1B68     		ldr	r3, [r3]
 106 0048 002B     		cmp	r3, #0
 107 004a 0DD1     		bne	.L4
  58:.\main.c      ****             updown1=(updown1+1)%2;
 108              		.loc 1 58 0
 109 004c 164B     		ldr	r3, .L7+16
 110 004e 1B68     		ldr	r3, [r3]
 111 0050 5A1C     		add	r2, r3, #1
 112 0052 164B     		ldr	r3, .L7+20
 113 0054 1340     		and	r3, r2
 114 0056 04D5     		bpl	.L5
 115 0058 013B     		sub	r3, r3, #1
 116 005a 0222     		mov	r2, #2
 117 005c 5242     		neg	r2, r2
 118 005e 1343     		orr	r3, r2
 119 0060 0133     		add	r3, r3, #1
 120              	.L5:
 121 0062 1A1C     		mov	r2, r3
 122 0064 104B     		ldr	r3, .L7+16
 123 0066 1A60     		str	r2, [r3]
 124              	.L4:
  59:.\main.c      ****         }
  60:.\main.c      ****         if(updown1==1){
 125              		.loc 1 60 0
 126 0068 0F4B     		ldr	r3, .L7+16
 127 006a 1B68     		ldr	r3, [r3]
 128 006c 012B     		cmp	r3, #1
 129 006e 06D1     		bne	.L6
  61:.\main.c      ****             PWM_1_WriteCompare(100+cmp1);
 130              		.loc 1 61 0
 131 0070 0B4B     		ldr	r3, .L7+8
 132 0072 1B68     		ldr	r3, [r3]
 133 0074 6433     		add	r3, r3, #100
 134 0076 181C     		mov	r0, r3
 135 0078 FFF7FEFF 		bl	PWM_1_WriteCompare
 136 007c 0AE0     		b	.L1
 137              	.L6:
  62:.\main.c      ****         }
  63:.\main.c      ****         else if(updown1==0){
 138              		.loc 1 63 0
 139 007e 0A4B     		ldr	r3, .L7+16
 140 0080 1B68     		ldr	r3, [r3]
 141 0082 002B     		cmp	r3, #0
 142 0084 06D1     		bne	.L1
ARM GAS  C:\Users\Cedric\AppData\Local\Temp\cctuqFaR.s 			page 6


  64:.\main.c      ****             PWM_1_WriteCompare(100+period-cmp1);
 143              		.loc 1 64 0
 144 0086 064B     		ldr	r3, .L7+8
 145 0088 1B68     		ldr	r3, [r3]
 146 008a 094A     		ldr	r2, .L7+24
 147 008c D31A     		sub	r3, r2, r3
 148 008e 181C     		mov	r0, r3
 149 0090 FFF7FEFF 		bl	PWM_1_WriteCompare
 150              	.L1:
  65:.\main.c      ****         }
  66:.\main.c      ****     }
  67:.\main.c      **** 
  68:.\main.c      **** }
 151              		.loc 1 68 0
 152 0094 BD46     		mov	sp, r7
 153              		@ sp needed for prologue
 154 0096 80BD     		pop	{r7, pc}
 155              	.L8:
 156              		.align	2
 157              	.L7:
 158 0098 14000000 		.word	cpt1.5412
 159 009c 03000080 		.word	-2147483645
 160 00a0 18000000 		.word	cmp1.5413
 161 00a4 48260000 		.word	9800
 162 00a8 60010000 		.word	updown1.5414
 163 00ac 01000080 		.word	-2147483647
 164 00b0 AC260000 		.word	9900
 165              		.cfi_endproc
 166              	.LFE33:
 167              		.size	InterruptHandler1, .-InterruptHandler1
 168              		.section	.text.InterruptHandler2,"ax",%progbits
 169              		.align	2
 170              		.global	InterruptHandler2
 171              		.code	16
 172              		.thumb_func
 173              		.type	InterruptHandler2, %function
 174              	InterruptHandler2:
 175              	.LFB34:
  69:.\main.c      **** 
  70:.\main.c      **** CY_ISR(InterruptHandler2)
  71:.\main.c      **** {
 176              		.loc 1 71 0
 177              		.cfi_startproc
 178 0000 80B5     		push	{r7, lr}
 179              	.LCFI2:
 180              		.cfi_def_cfa_offset 8
 181              		.cfi_offset 7, -8
 182              		.cfi_offset 14, -4
 183 0002 00AF     		add	r7, sp, #0
 184              	.LCFI3:
 185              		.cfi_def_cfa_register 7
  72:.\main.c      **** 	static int cpt2=0;
  73:.\main.c      **** 	static int cmp2=0;
  74:.\main.c      ****     static int updown2=1;
  75:.\main.c      ****     
  76:.\main.c      ****     cpt2=(cpt2+1)%period2;
 186              		.loc 1 76 0
ARM GAS  C:\Users\Cedric\AppData\Local\Temp\cctuqFaR.s 			page 7


 187 0004 234B     		ldr	r3, .L14
 188 0006 1B68     		ldr	r3, [r3]
 189 0008 0133     		add	r3, r3, #1
 190 000a 181C     		mov	r0, r3
 191 000c 0A21     		mov	r1, #10
 192 000e FFF7FEFF 		bl	__aeabi_idivmod
 193 0012 0B1C     		mov	r3, r1
 194 0014 1A1C     		mov	r2, r3
 195 0016 1F4B     		ldr	r3, .L14
 196 0018 1A60     		str	r2, [r3]
  77:.\main.c      **** //    /* Clear TC Inerrupt */
  78:.\main.c      ****    	PWM_2_ClearInterrupt(PWM_2_INTR_MASK_TC);
 197              		.loc 1 78 0
 198 001a 0120     		mov	r0, #1
 199 001c FFF7FEFF 		bl	PWM_2_ClearInterrupt
  79:.\main.c      **** //    
  80:.\main.c      **** //	/* Increment the Compare for LED brighrness decrease */ 
  81:.\main.c      ****     if (cpt2==0){
 200              		.loc 1 81 0
 201 0020 1C4B     		ldr	r3, .L14
 202 0022 1B68     		ldr	r3, [r3]
 203 0024 002B     		cmp	r3, #0
 204 0026 32D1     		bne	.L9
  82:.\main.c      ****         cmp2 = (cmp2+2) %period;
 205              		.loc 1 82 0
 206 0028 1B4B     		ldr	r3, .L14+4
 207 002a 1B68     		ldr	r3, [r3]
 208 002c 0233     		add	r3, r3, #2
 209 002e 181C     		mov	r0, r3
 210 0030 1A49     		ldr	r1, .L14+8
 211 0032 FFF7FEFF 		bl	__aeabi_idivmod
 212 0036 0B1C     		mov	r3, r1
 213 0038 1A1C     		mov	r2, r3
 214 003a 174B     		ldr	r3, .L14+4
 215 003c 1A60     		str	r2, [r3]
  83:.\main.c      ****         if(cmp2 ==0){
 216              		.loc 1 83 0
 217 003e 164B     		ldr	r3, .L14+4
 218 0040 1B68     		ldr	r3, [r3]
 219 0042 002B     		cmp	r3, #0
 220 0044 0DD1     		bne	.L11
  84:.\main.c      ****             updown2=(updown2+1)%2;
 221              		.loc 1 84 0
 222 0046 164B     		ldr	r3, .L14+12
 223 0048 1B68     		ldr	r3, [r3]
 224 004a 5A1C     		add	r2, r3, #1
 225 004c 154B     		ldr	r3, .L14+16
 226 004e 1340     		and	r3, r2
 227 0050 04D5     		bpl	.L12
 228 0052 013B     		sub	r3, r3, #1
 229 0054 0222     		mov	r2, #2
 230 0056 5242     		neg	r2, r2
 231 0058 1343     		orr	r3, r2
 232 005a 0133     		add	r3, r3, #1
 233              	.L12:
 234 005c 1A1C     		mov	r2, r3
 235 005e 104B     		ldr	r3, .L14+12
ARM GAS  C:\Users\Cedric\AppData\Local\Temp\cctuqFaR.s 			page 8


 236 0060 1A60     		str	r2, [r3]
 237              	.L11:
  85:.\main.c      ****         }
  86:.\main.c      ****         if(updown2==1){
 238              		.loc 1 86 0
 239 0062 0F4B     		ldr	r3, .L14+12
 240 0064 1B68     		ldr	r3, [r3]
 241 0066 012B     		cmp	r3, #1
 242 0068 06D1     		bne	.L13
  87:.\main.c      ****             PWM_2_WriteCompare(100+cmp2);
 243              		.loc 1 87 0
 244 006a 0B4B     		ldr	r3, .L14+4
 245 006c 1B68     		ldr	r3, [r3]
 246 006e 6433     		add	r3, r3, #100
 247 0070 181C     		mov	r0, r3
 248 0072 FFF7FEFF 		bl	PWM_2_WriteCompare
 249 0076 0AE0     		b	.L9
 250              	.L13:
  88:.\main.c      ****         }
  89:.\main.c      ****         else if(updown2==0){
 251              		.loc 1 89 0
 252 0078 094B     		ldr	r3, .L14+12
 253 007a 1B68     		ldr	r3, [r3]
 254 007c 002B     		cmp	r3, #0
 255 007e 06D1     		bne	.L9
  90:.\main.c      ****             PWM_2_WriteCompare(100+period-cmp2);
 256              		.loc 1 90 0
 257 0080 054B     		ldr	r3, .L14+4
 258 0082 1B68     		ldr	r3, [r3]
 259 0084 084A     		ldr	r2, .L14+20
 260 0086 D31A     		sub	r3, r2, r3
 261 0088 181C     		mov	r0, r3
 262 008a FFF7FEFF 		bl	PWM_2_WriteCompare
 263              	.L9:
  91:.\main.c      ****         }
  92:.\main.c      ****     }
  93:.\main.c      **** 
  94:.\main.c      **** }
 264              		.loc 1 94 0
 265 008e BD46     		mov	sp, r7
 266              		@ sp needed for prologue
 267 0090 80BD     		pop	{r7, pc}
 268              	.L15:
 269 0092 C046     		.align	2
 270              	.L14:
 271 0094 0C000000 		.word	cpt2.5418
 272 0098 10000000 		.word	cmp2.5419
 273 009c 48260000 		.word	9800
 274 00a0 5C010000 		.word	updown2.5420
 275 00a4 01000080 		.word	-2147483647
 276 00a8 AC260000 		.word	9900
 277              		.cfi_endproc
 278              	.LFE34:
 279              		.size	InterruptHandler2, .-InterruptHandler2
 280              		.section	.text.InterruptHandler3,"ax",%progbits
 281              		.align	2
 282              		.global	InterruptHandler3
ARM GAS  C:\Users\Cedric\AppData\Local\Temp\cctuqFaR.s 			page 9


 283              		.code	16
 284              		.thumb_func
 285              		.type	InterruptHandler3, %function
 286              	InterruptHandler3:
 287              	.LFB35:
  95:.\main.c      **** 
  96:.\main.c      **** CY_ISR(InterruptHandler3)
  97:.\main.c      **** {
 288              		.loc 1 97 0
 289              		.cfi_startproc
 290 0000 80B5     		push	{r7, lr}
 291              	.LCFI4:
 292              		.cfi_def_cfa_offset 8
 293              		.cfi_offset 7, -8
 294              		.cfi_offset 14, -4
 295 0002 00AF     		add	r7, sp, #0
 296              	.LCFI5:
 297              		.cfi_def_cfa_register 7
  98:.\main.c      **** 	static int cpt3=0;
  99:.\main.c      **** 	static int cmp3=0;
 100:.\main.c      ****     static int updown3=1;
 101:.\main.c      ****     
 102:.\main.c      ****     cpt3=(cpt3+1)%period3;
 298              		.loc 1 102 0
 299 0004 234B     		ldr	r3, .L21
 300 0006 1B68     		ldr	r3, [r3]
 301 0008 0133     		add	r3, r3, #1
 302 000a 181C     		mov	r0, r3
 303 000c 0721     		mov	r1, #7
 304 000e FFF7FEFF 		bl	__aeabi_idivmod
 305 0012 0B1C     		mov	r3, r1
 306 0014 1A1C     		mov	r2, r3
 307 0016 1F4B     		ldr	r3, .L21
 308 0018 1A60     		str	r2, [r3]
 103:.\main.c      **** //    /* Clear TC Inerrupt */
 104:.\main.c      ****    	PWM_3_ClearInterrupt(PWM_3_INTR_MASK_TC);
 309              		.loc 1 104 0
 310 001a 0120     		mov	r0, #1
 311 001c FFF7FEFF 		bl	PWM_3_ClearInterrupt
 105:.\main.c      **** //    
 106:.\main.c      **** //	/* Increment the Compare for LED brighrness decrease */ 
 107:.\main.c      ****     if (cpt3==0){
 312              		.loc 1 107 0
 313 0020 1C4B     		ldr	r3, .L21
 314 0022 1B68     		ldr	r3, [r3]
 315 0024 002B     		cmp	r3, #0
 316 0026 32D1     		bne	.L16
 108:.\main.c      ****         cmp3 = (cmp3+2) %period;
 317              		.loc 1 108 0
 318 0028 1B4B     		ldr	r3, .L21+4
 319 002a 1B68     		ldr	r3, [r3]
 320 002c 0233     		add	r3, r3, #2
 321 002e 181C     		mov	r0, r3
 322 0030 1A49     		ldr	r1, .L21+8
 323 0032 FFF7FEFF 		bl	__aeabi_idivmod
 324 0036 0B1C     		mov	r3, r1
 325 0038 1A1C     		mov	r2, r3
ARM GAS  C:\Users\Cedric\AppData\Local\Temp\cctuqFaR.s 			page 10


 326 003a 174B     		ldr	r3, .L21+4
 327 003c 1A60     		str	r2, [r3]
 109:.\main.c      ****         if(cmp3==0){
 328              		.loc 1 109 0
 329 003e 164B     		ldr	r3, .L21+4
 330 0040 1B68     		ldr	r3, [r3]
 331 0042 002B     		cmp	r3, #0
 332 0044 0DD1     		bne	.L18
 110:.\main.c      ****             updown3=(updown3+1)%2;
 333              		.loc 1 110 0
 334 0046 164B     		ldr	r3, .L21+12
 335 0048 1B68     		ldr	r3, [r3]
 336 004a 5A1C     		add	r2, r3, #1
 337 004c 154B     		ldr	r3, .L21+16
 338 004e 1340     		and	r3, r2
 339 0050 04D5     		bpl	.L19
 340 0052 013B     		sub	r3, r3, #1
 341 0054 0222     		mov	r2, #2
 342 0056 5242     		neg	r2, r2
 343 0058 1343     		orr	r3, r2
 344 005a 0133     		add	r3, r3, #1
 345              	.L19:
 346 005c 1A1C     		mov	r2, r3
 347 005e 104B     		ldr	r3, .L21+12
 348 0060 1A60     		str	r2, [r3]
 349              	.L18:
 111:.\main.c      ****         }
 112:.\main.c      ****         if(updown3==1){
 350              		.loc 1 112 0
 351 0062 0F4B     		ldr	r3, .L21+12
 352 0064 1B68     		ldr	r3, [r3]
 353 0066 012B     		cmp	r3, #1
 354 0068 06D1     		bne	.L20
 113:.\main.c      ****             PWM_3_WriteCompare(100+cmp3);
 355              		.loc 1 113 0
 356 006a 0B4B     		ldr	r3, .L21+4
 357 006c 1B68     		ldr	r3, [r3]
 358 006e 6433     		add	r3, r3, #100
 359 0070 181C     		mov	r0, r3
 360 0072 FFF7FEFF 		bl	PWM_3_WriteCompare
 361 0076 0AE0     		b	.L16
 362              	.L20:
 114:.\main.c      ****         }
 115:.\main.c      ****         else if(updown3==0){
 363              		.loc 1 115 0
 364 0078 094B     		ldr	r3, .L21+12
 365 007a 1B68     		ldr	r3, [r3]
 366 007c 002B     		cmp	r3, #0
 367 007e 06D1     		bne	.L16
 116:.\main.c      ****             PWM_3_WriteCompare(100+period-cmp3);
 368              		.loc 1 116 0
 369 0080 054B     		ldr	r3, .L21+4
 370 0082 1B68     		ldr	r3, [r3]
 371 0084 084A     		ldr	r2, .L21+20
 372 0086 D31A     		sub	r3, r2, r3
 373 0088 181C     		mov	r0, r3
 374 008a FFF7FEFF 		bl	PWM_3_WriteCompare
ARM GAS  C:\Users\Cedric\AppData\Local\Temp\cctuqFaR.s 			page 11


 375              	.L16:
 117:.\main.c      ****         }
 118:.\main.c      ****     }
 119:.\main.c      **** 
 120:.\main.c      **** }
 376              		.loc 1 120 0
 377 008e BD46     		mov	sp, r7
 378              		@ sp needed for prologue
 379 0090 80BD     		pop	{r7, pc}
 380              	.L22:
 381 0092 C046     		.align	2
 382              	.L21:
 383 0094 04000000 		.word	cpt3.5424
 384 0098 08000000 		.word	cmp3.5425
 385 009c 48260000 		.word	9800
 386 00a0 58010000 		.word	updown3.5426
 387 00a4 01000080 		.word	-2147483647
 388 00a8 AC260000 		.word	9900
 389              		.cfi_endproc
 390              	.LFE35:
 391              		.size	InterruptHandler3, .-InterruptHandler3
 392              		.section	.text.InterruptHandler4,"ax",%progbits
 393              		.align	2
 394              		.global	InterruptHandler4
 395              		.code	16
 396              		.thumb_func
 397              		.type	InterruptHandler4, %function
 398              	InterruptHandler4:
 399              	.LFB36:
 121:.\main.c      **** 
 122:.\main.c      **** CY_ISR(InterruptHandler4)
 123:.\main.c      **** {
 400              		.loc 1 123 0
 401              		.cfi_startproc
 402 0000 80B5     		push	{r7, lr}
 403              	.LCFI6:
 404              		.cfi_def_cfa_offset 8
 405              		.cfi_offset 7, -8
 406              		.cfi_offset 14, -4
 407 0002 00AF     		add	r7, sp, #0
 408              	.LCFI7:
 409              		.cfi_def_cfa_register 7
 124:.\main.c      ****     static int i=0;
 125:.\main.c      ****     
 126:.\main.c      ****     TIM_4_ClearInterrupt(TIM_4__INTR_MASK_TC);
 410              		.loc 1 126 0
 411 0004 0120     		mov	r0, #1
 412 0006 FFF7FEFF 		bl	TIM_4_ClearInterrupt
 127:.\main.c      ****     
 128:.\main.c      ****     LCD_Char_1_ClearDisplay();
 413              		.loc 1 128 0
 414 000a 0120     		mov	r0, #1
 415 000c FFF7FEFF 		bl	LCD_Char_1_WriteControl
 129:.\main.c      **** 
 130:.\main.c      ****     LCD_Char_1_PrintString(messagesl1[i]);
 416              		.loc 1 130 0
 417 0010 124B     		ldr	r3, .L24
ARM GAS  C:\Users\Cedric\AppData\Local\Temp\cctuqFaR.s 			page 12


 418 0012 1A68     		ldr	r2, [r3]
 419 0014 131C     		mov	r3, r2
 420 0016 1B01     		lsl	r3, r3, #4
 421 0018 9B18     		add	r3, r3, r2
 422 001a 114A     		ldr	r2, .L24+4
 423 001c 9B18     		add	r3, r3, r2
 424 001e 181C     		mov	r0, r3
 425 0020 FFF7FEFF 		bl	LCD_Char_1_PrintString
 131:.\main.c      ****     LCD_Char_1_Position(1u, 0u);
 426              		.loc 1 131 0
 427 0024 0120     		mov	r0, #1
 428 0026 0021     		mov	r1, #0
 429 0028 FFF7FEFF 		bl	LCD_Char_1_Position
 132:.\main.c      ****     LCD_Char_1_PrintString(messagesl2[i]);
 430              		.loc 1 132 0
 431 002c 0B4B     		ldr	r3, .L24
 432 002e 1A68     		ldr	r2, [r3]
 433 0030 131C     		mov	r3, r2
 434 0032 1B01     		lsl	r3, r3, #4
 435 0034 9B18     		add	r3, r3, r2
 436 0036 0B4A     		ldr	r2, .L24+8
 437 0038 9B18     		add	r3, r3, r2
 438 003a 181C     		mov	r0, r3
 439 003c FFF7FEFF 		bl	LCD_Char_1_PrintString
 133:.\main.c      **** 
 134:.\main.c      ****     i=(i+1)%nbmessages;
 440              		.loc 1 134 0
 441 0040 064B     		ldr	r3, .L24
 442 0042 1B68     		ldr	r3, [r3]
 443 0044 0133     		add	r3, r3, #1
 444 0046 181C     		mov	r0, r3
 445 0048 0A21     		mov	r1, #10
 446 004a FFF7FEFF 		bl	__aeabi_idivmod
 447 004e 0B1C     		mov	r3, r1
 448 0050 1A1C     		mov	r2, r3
 449 0052 024B     		ldr	r3, .L24
 450 0054 1A60     		str	r2, [r3]
 135:.\main.c      **** 
 136:.\main.c      **** 
 137:.\main.c      **** }
 451              		.loc 1 137 0
 452 0056 BD46     		mov	sp, r7
 453              		@ sp needed for prologue
 454 0058 80BD     		pop	{r7, pc}
 455              	.L25:
 456 005a C046     		.align	2
 457              	.L24:
 458 005c 00000000 		.word	i.5430
 459 0060 00000000 		.word	messagesl1
 460 0064 00000000 		.word	messagesl2
 461              		.cfi_endproc
 462              	.LFE36:
 463              		.size	InterruptHandler4, .-InterruptHandler4
 464              		.section	.rodata
 465              		.align	2
 466              	.LC16:
 467 0000 2050726F 		.ascii	" Projet SPECIAL \000"
ARM GAS  C:\Users\Cedric\AppData\Local\Temp\cctuqFaR.s 			page 13


 467      6A657420 
 467      53504543 
 467      49414C20 
 467      00
 468 0011 000000   		.align	2
 469              	.LC18:
 470 0014 20204261 		.ascii	"  Bapteme promo \000"
 470      7074656D 
 470      65207072 
 470      6F6D6F20 
 470      00
 471 0025 000000   		.section	.text.main,"ax",%progbits
 472              		.align	2
 473              		.global	main
 474              		.code	16
 475              		.thumb_func
 476              		.type	main, %function
 477              	main:
 478              	.LFB37:
 138:.\main.c      **** 
 139:.\main.c      **** int main()
 140:.\main.c      **** {
 479              		.loc 1 140 0
 480              		.cfi_startproc
 481 0000 80B5     		push	{r7, lr}
 482              	.LCFI8:
 483              		.cfi_def_cfa_offset 8
 484              		.cfi_offset 7, -8
 485              		.cfi_offset 14, -4
 486 0002 00AF     		add	r7, sp, #0
 487              	.LCFI9:
 488              		.cfi_def_cfa_register 7
 141:.\main.c      ****     //allow global interrupt
 142:.\main.c      ****     CyGlobalIntEnable;
 489              		.loc 1 142 0
 490              	@ 142 ".\main.c" 1
 491 0004 62B6     		CPSIE   i
 492              	@ 0 "" 2
 143:.\main.c      ****  
 144:.\main.c      ****     /* Enable the Interrupt component connected to interrupt */
 145:.\main.c      ****     
 146:.\main.c      ****     TC1_ISR_StartEx(InterruptHandler1);
 493              		.loc 1 146 0
 494              		.code	16
 495 0006 154B     		ldr	r3, .L28
 496 0008 181C     		mov	r0, r3
 497 000a FFF7FEFF 		bl	TC1_ISR_StartEx
 147:.\main.c      ****     TC2_ISR_StartEx(InterruptHandler2);
 498              		.loc 1 147 0
 499 000e 144B     		ldr	r3, .L28+4
 500 0010 181C     		mov	r0, r3
 501 0012 FFF7FEFF 		bl	TC2_ISR_StartEx
 148:.\main.c      ****     TC3_ISR_StartEx(InterruptHandler3);
 502              		.loc 1 148 0
 503 0016 134B     		ldr	r3, .L28+8
 504 0018 181C     		mov	r0, r3
 505 001a FFF7FEFF 		bl	TC3_ISR_StartEx
ARM GAS  C:\Users\Cedric\AppData\Local\Temp\cctuqFaR.s 			page 14


 149:.\main.c      ****     TC4_ISR_StartEx(InterruptHandler4);
 506              		.loc 1 149 0
 507 001e 124B     		ldr	r3, .L28+12
 508 0020 181C     		mov	r0, r3
 509 0022 FFF7FEFF 		bl	TC4_ISR_StartEx
 150:.\main.c      ****     
 151:.\main.c      ****     //initialisation LCD
 152:.\main.c      ****     LCD_Char_1_Start();
 510              		.loc 1 152 0
 511 0026 FFF7FEFF 		bl	LCD_Char_1_Start
 153:.\main.c      **** 
 154:.\main.c      ****     
 155:.\main.c      ****     /* Initialisation affichage */
 156:.\main.c      ****     LCD_Char_1_Position(0u, 0u);
 512              		.loc 1 156 0
 513 002a 0020     		mov	r0, #0
 514 002c 0021     		mov	r1, #0
 515 002e FFF7FEFF 		bl	LCD_Char_1_Position
 157:.\main.c      ****     LCD_Char_1_PrintString(" Projet SPECIAL ");
 516              		.loc 1 157 0
 517 0032 0E4B     		ldr	r3, .L28+16
 518 0034 181C     		mov	r0, r3
 519 0036 FFF7FEFF 		bl	LCD_Char_1_PrintString
 158:.\main.c      ****     LCD_Char_1_Position(1u, 0u);
 520              		.loc 1 158 0
 521 003a 0120     		mov	r0, #1
 522 003c 0021     		mov	r1, #0
 523 003e FFF7FEFF 		bl	LCD_Char_1_Position
 159:.\main.c      ****     LCD_Char_1_PrintString("  Bapteme promo ");
 524              		.loc 1 159 0
 525 0042 0B4B     		ldr	r3, .L28+20
 526 0044 181C     		mov	r0, r3
 527 0046 FFF7FEFF 		bl	LCD_Char_1_PrintString
 160:.\main.c      ****     //CyDelay(2000);
 161:.\main.c      ****     //LCD_Char_1_ClearDisplay();
 162:.\main.c      ****     //CyDelay(2000);
 163:.\main.c      **** 
 164:.\main.c      ****  
 165:.\main.c      **** 
 166:.\main.c      ****     //initialisation des PWMs 
 167:.\main.c      ****     PWM_1_Start();
 528              		.loc 1 167 0
 529 004a FFF7FEFF 		bl	PWM_1_Start
 168:.\main.c      ****     PWM_3_Start();
 530              		.loc 1 168 0
 531 004e FFF7FEFF 		bl	PWM_3_Start
 169:.\main.c      ****     PWM_2_Start();
 532              		.loc 1 169 0
 533 0052 FFF7FEFF 		bl	PWM_2_Start
 170:.\main.c      ****     TIM_4_Start();
 534              		.loc 1 170 0
 535 0056 FFF7FEFF 		bl	TIM_4_Start
 536              	.L27:
 171:.\main.c      **** 
 172:.\main.c      ****     
 173:.\main.c      **** 
 174:.\main.c      **** 
ARM GAS  C:\Users\Cedric\AppData\Local\Temp\cctuqFaR.s 			page 15


 175:.\main.c      ****     for(;;)
 176:.\main.c      ****     {   
 177:.\main.c      ****     }
 537              		.loc 1 177 0 discriminator 1
 538 005a FEE7     		b	.L27
 539              	.L29:
 540              		.align	2
 541              	.L28:
 542 005c 00000000 		.word	InterruptHandler1
 543 0060 00000000 		.word	InterruptHandler2
 544 0064 00000000 		.word	InterruptHandler3
 545 0068 00000000 		.word	InterruptHandler4
 546 006c 00000000 		.word	.LC16
 547 0070 14000000 		.word	.LC18
 548              		.cfi_endproc
 549              	.LFE37:
 550              		.size	main, .-main
 551              		.bss
 552              		.align	2
 553              	i.5430:
 554 0000 00000000 		.space	4
 555              		.align	2
 556              	cpt3.5424:
 557 0004 00000000 		.space	4
 558              		.align	2
 559              	cmp3.5425:
 560 0008 00000000 		.space	4
 561              		.data
 562 0156 0000     		.align	2
 563              		.type	updown3.5426, %object
 564              		.size	updown3.5426, 4
 565              	updown3.5426:
 566 0158 01000000 		.word	1
 567              		.bss
 568              		.align	2
 569              	cpt2.5418:
 570 000c 00000000 		.space	4
 571              		.align	2
 572              	cmp2.5419:
 573 0010 00000000 		.space	4
 574              		.data
 575              		.align	2
 576              		.type	updown2.5420, %object
 577              		.size	updown2.5420, 4
 578              	updown2.5420:
 579 015c 01000000 		.word	1
 580              		.bss
 581              		.align	2
 582              	cpt1.5412:
 583 0014 00000000 		.space	4
 584              		.align	2
 585              	cmp1.5413:
 586 0018 00000000 		.space	4
 587              		.data
 588              		.align	2
 589              		.type	updown1.5414, %object
 590              		.size	updown1.5414, 4
ARM GAS  C:\Users\Cedric\AppData\Local\Temp\cctuqFaR.s 			page 16


 591              	updown1.5414:
 592 0160 01000000 		.word	1
 593              		.text
 594              	.Letext0:
 595              		.file 2 "./Generated_Source/PSoC4/cytypes.h"
 596              		.section	.debug_info,"",%progbits
 597              	.Ldebug_info0:
 598 0000 FA010000 		.4byte	0x1fa
 599 0004 0200     		.2byte	0x2
 600 0006 00000000 		.4byte	.Ldebug_abbrev0
 601 000a 04       		.byte	0x4
 602 000b 01       		.uleb128 0x1
 603 000c 29010000 		.4byte	.LASF28
 604 0010 01       		.byte	0x1
 605 0011 60000000 		.4byte	.LASF29
 606 0015 80010000 		.4byte	.LASF30
 607 0019 00000000 		.4byte	.Ldebug_ranges0+0
 608 001d 00000000 		.4byte	0
 609 0021 00000000 		.4byte	0
 610 0025 00000000 		.4byte	.Ldebug_line0
 611 0029 02       		.uleb128 0x2
 612 002a 01       		.byte	0x1
 613 002b 06       		.byte	0x6
 614 002c E3010000 		.4byte	.LASF0
 615 0030 02       		.uleb128 0x2
 616 0031 01       		.byte	0x1
 617 0032 08       		.byte	0x8
 618 0033 10000000 		.4byte	.LASF1
 619 0037 02       		.uleb128 0x2
 620 0038 02       		.byte	0x2
 621 0039 05       		.byte	0x5
 622 003a 1F010000 		.4byte	.LASF2
 623 003e 02       		.uleb128 0x2
 624 003f 02       		.byte	0x2
 625 0040 07       		.byte	0x7
 626 0041 46000000 		.4byte	.LASF3
 627 0045 02       		.uleb128 0x2
 628 0046 04       		.byte	0x4
 629 0047 05       		.byte	0x5
 630 0048 72010000 		.4byte	.LASF4
 631 004c 02       		.uleb128 0x2
 632 004d 04       		.byte	0x4
 633 004e 07       		.byte	0x7
 634 004f 34000000 		.4byte	.LASF5
 635 0053 02       		.uleb128 0x2
 636 0054 08       		.byte	0x8
 637 0055 05       		.byte	0x5
 638 0056 02010000 		.4byte	.LASF6
 639 005a 02       		.uleb128 0x2
 640 005b 08       		.byte	0x8
 641 005c 07       		.byte	0x7
 642 005d 95000000 		.4byte	.LASF7
 643 0061 03       		.uleb128 0x3
 644 0062 04       		.byte	0x4
 645 0063 05       		.byte	0x5
 646 0064 696E7400 		.ascii	"int\000"
 647 0068 02       		.uleb128 0x2
ARM GAS  C:\Users\Cedric\AppData\Local\Temp\cctuqFaR.s 			page 17


 648 0069 04       		.byte	0x4
 649 006a 07       		.byte	0x7
 650 006b 88000000 		.4byte	.LASF8
 651 006f 04       		.uleb128 0x4
 652 0070 69000000 		.4byte	.LASF31
 653 0074 02       		.byte	0x2
 654 0075 5D       		.byte	0x5d
 655 0076 4C000000 		.4byte	0x4c
 656 007a 02       		.uleb128 0x2
 657 007b 04       		.byte	0x4
 658 007c 04       		.byte	0x4
 659 007d 0A000000 		.4byte	.LASF9
 660 0081 02       		.uleb128 0x2
 661 0082 08       		.byte	0x8
 662 0083 04       		.byte	0x4
 663 0084 59000000 		.4byte	.LASF10
 664 0088 02       		.uleb128 0x2
 665 0089 01       		.byte	0x1
 666 008a 08       		.byte	0x8
 667 008b 05000000 		.4byte	.LASF11
 668 008f 02       		.uleb128 0x2
 669 0090 04       		.byte	0x4
 670 0091 07       		.byte	0x7
 671 0092 F9000000 		.4byte	.LASF12
 672 0096 05       		.uleb128 0x5
 673 0097 01       		.byte	0x1
 674 0098 AC000000 		.4byte	.LASF16
 675 009c 01       		.byte	0x1
 676 009d 2C       		.byte	0x2c
 677 009e 01       		.byte	0x1
 678 009f 00000000 		.4byte	.LFB33
 679 00a3 B4000000 		.4byte	.LFE33
 680 00a7 00000000 		.4byte	.LLST0
 681 00ab 01       		.byte	0x1
 682 00ac E4000000 		.4byte	0xe4
 683 00b0 06       		.uleb128 0x6
 684 00b1 7B010000 		.4byte	.LASF13
 685 00b5 01       		.byte	0x1
 686 00b6 2E       		.byte	0x2e
 687 00b7 61000000 		.4byte	0x61
 688 00bb 05       		.byte	0x5
 689 00bc 03       		.byte	0x3
 690 00bd 14000000 		.4byte	cpt1.5412
 691 00c1 06       		.uleb128 0x6
 692 00c2 10010000 		.4byte	.LASF14
 693 00c6 01       		.byte	0x1
 694 00c7 2F       		.byte	0x2f
 695 00c8 61000000 		.4byte	0x61
 696 00cc 05       		.byte	0x5
 697 00cd 03       		.byte	0x3
 698 00ce 18000000 		.4byte	cmp1.5413
 699 00d2 06       		.uleb128 0x6
 700 00d3 70000000 		.4byte	.LASF15
 701 00d7 01       		.byte	0x1
 702 00d8 30       		.byte	0x30
 703 00d9 61000000 		.4byte	0x61
 704 00dd 05       		.byte	0x5
ARM GAS  C:\Users\Cedric\AppData\Local\Temp\cctuqFaR.s 			page 18


 705 00de 03       		.byte	0x3
 706 00df 60010000 		.4byte	updown1.5414
 707 00e3 00       		.byte	0
 708 00e4 05       		.uleb128 0x5
 709 00e5 01       		.byte	0x1
 710 00e6 BE000000 		.4byte	.LASF17
 711 00ea 01       		.byte	0x1
 712 00eb 46       		.byte	0x46
 713 00ec 01       		.byte	0x1
 714 00ed 00000000 		.4byte	.LFB34
 715 00f1 AC000000 		.4byte	.LFE34
 716 00f5 2C000000 		.4byte	.LLST1
 717 00f9 01       		.byte	0x1
 718 00fa 32010000 		.4byte	0x132
 719 00fe 06       		.uleb128 0x6
 720 00ff 00000000 		.4byte	.LASF18
 721 0103 01       		.byte	0x1
 722 0104 48       		.byte	0x48
 723 0105 61000000 		.4byte	0x61
 724 0109 05       		.byte	0x5
 725 010a 03       		.byte	0x3
 726 010b 0C000000 		.4byte	cpt2.5418
 727 010f 06       		.uleb128 0x6
 728 0110 15010000 		.4byte	.LASF19
 729 0114 01       		.byte	0x1
 730 0115 49       		.byte	0x49
 731 0116 61000000 		.4byte	0x61
 732 011a 05       		.byte	0x5
 733 011b 03       		.byte	0x3
 734 011c 10000000 		.4byte	cmp2.5419
 735 0120 06       		.uleb128 0x6
 736 0121 78000000 		.4byte	.LASF20
 737 0125 01       		.byte	0x1
 738 0126 4A       		.byte	0x4a
 739 0127 61000000 		.4byte	0x61
 740 012b 05       		.byte	0x5
 741 012c 03       		.byte	0x3
 742 012d 5C010000 		.4byte	updown2.5420
 743 0131 00       		.byte	0
 744 0132 05       		.uleb128 0x5
 745 0133 01       		.byte	0x1
 746 0134 D0000000 		.4byte	.LASF21
 747 0138 01       		.byte	0x1
 748 0139 60       		.byte	0x60
 749 013a 01       		.byte	0x1
 750 013b 00000000 		.4byte	.LFB35
 751 013f AC000000 		.4byte	.LFE35
 752 0143 58000000 		.4byte	.LLST2
 753 0147 01       		.byte	0x1
 754 0148 80010000 		.4byte	0x180
 755 014c 06       		.uleb128 0x6
 756 014d DE010000 		.4byte	.LASF22
 757 0151 01       		.byte	0x1
 758 0152 62       		.byte	0x62
 759 0153 61000000 		.4byte	0x61
 760 0157 05       		.byte	0x5
 761 0158 03       		.byte	0x3
ARM GAS  C:\Users\Cedric\AppData\Local\Temp\cctuqFaR.s 			page 19


 762 0159 04000000 		.4byte	cpt3.5424
 763 015d 06       		.uleb128 0x6
 764 015e 1A010000 		.4byte	.LASF23
 765 0162 01       		.byte	0x1
 766 0163 63       		.byte	0x63
 767 0164 61000000 		.4byte	0x61
 768 0168 05       		.byte	0x5
 769 0169 03       		.byte	0x3
 770 016a 08000000 		.4byte	cmp3.5425
 771 016e 06       		.uleb128 0x6
 772 016f 80000000 		.4byte	.LASF24
 773 0173 01       		.byte	0x1
 774 0174 64       		.byte	0x64
 775 0175 61000000 		.4byte	0x61
 776 0179 05       		.byte	0x5
 777 017a 03       		.byte	0x3
 778 017b 58010000 		.4byte	updown3.5426
 779 017f 00       		.byte	0
 780 0180 05       		.uleb128 0x5
 781 0181 01       		.byte	0x1
 782 0182 E2000000 		.4byte	.LASF25
 783 0186 01       		.byte	0x1
 784 0187 7A       		.byte	0x7a
 785 0188 01       		.byte	0x1
 786 0189 00000000 		.4byte	.LFB36
 787 018d 68000000 		.4byte	.LFE36
 788 0191 84000000 		.4byte	.LLST3
 789 0195 01       		.byte	0x1
 790 0196 AA010000 		.4byte	0x1aa
 791 019a 07       		.uleb128 0x7
 792 019b 6900     		.ascii	"i\000"
 793 019d 01       		.byte	0x1
 794 019e 7C       		.byte	0x7c
 795 019f 61000000 		.4byte	0x61
 796 01a3 05       		.byte	0x5
 797 01a4 03       		.byte	0x3
 798 01a5 00000000 		.4byte	i.5430
 799 01a9 00       		.byte	0
 800 01aa 08       		.uleb128 0x8
 801 01ab 01       		.byte	0x1
 802 01ac F4000000 		.4byte	.LASF32
 803 01b0 01       		.byte	0x1
 804 01b1 8B       		.byte	0x8b
 805 01b2 61000000 		.4byte	0x61
 806 01b6 00000000 		.4byte	.LFB37
 807 01ba 74000000 		.4byte	.LFE37
 808 01be B0000000 		.4byte	.LLST4
 809 01c2 01       		.byte	0x1
 810 01c3 09       		.uleb128 0x9
 811 01c4 88000000 		.4byte	0x88
 812 01c8 D9010000 		.4byte	0x1d9
 813 01cc 0A       		.uleb128 0xa
 814 01cd 8F000000 		.4byte	0x8f
 815 01d1 09       		.byte	0x9
 816 01d2 0A       		.uleb128 0xa
 817 01d3 8F000000 		.4byte	0x8f
 818 01d7 10       		.byte	0x10
ARM GAS  C:\Users\Cedric\AppData\Local\Temp\cctuqFaR.s 			page 20


 819 01d8 00       		.byte	0
 820 01d9 0B       		.uleb128 0xb
 821 01da 1E000000 		.4byte	.LASF26
 822 01de 01       		.byte	0x1
 823 01df 13       		.byte	0x13
 824 01e0 C3010000 		.4byte	0x1c3
 825 01e4 01       		.byte	0x1
 826 01e5 05       		.byte	0x5
 827 01e6 03       		.byte	0x3
 828 01e7 00000000 		.4byte	messagesl1
 829 01eb 0B       		.uleb128 0xb
 830 01ec 29000000 		.4byte	.LASF27
 831 01f0 01       		.byte	0x1
 832 01f1 1F       		.byte	0x1f
 833 01f2 C3010000 		.4byte	0x1c3
 834 01f6 01       		.byte	0x1
 835 01f7 05       		.byte	0x5
 836 01f8 03       		.byte	0x3
 837 01f9 00000000 		.4byte	messagesl2
 838 01fd 00       		.byte	0
 839              		.section	.debug_abbrev,"",%progbits
 840              	.Ldebug_abbrev0:
 841 0000 01       		.uleb128 0x1
 842 0001 11       		.uleb128 0x11
 843 0002 01       		.byte	0x1
 844 0003 25       		.uleb128 0x25
 845 0004 0E       		.uleb128 0xe
 846 0005 13       		.uleb128 0x13
 847 0006 0B       		.uleb128 0xb
 848 0007 03       		.uleb128 0x3
 849 0008 0E       		.uleb128 0xe
 850 0009 1B       		.uleb128 0x1b
 851 000a 0E       		.uleb128 0xe
 852 000b 55       		.uleb128 0x55
 853 000c 06       		.uleb128 0x6
 854 000d 11       		.uleb128 0x11
 855 000e 01       		.uleb128 0x1
 856 000f 52       		.uleb128 0x52
 857 0010 01       		.uleb128 0x1
 858 0011 10       		.uleb128 0x10
 859 0012 06       		.uleb128 0x6
 860 0013 00       		.byte	0
 861 0014 00       		.byte	0
 862 0015 02       		.uleb128 0x2
 863 0016 24       		.uleb128 0x24
 864 0017 00       		.byte	0
 865 0018 0B       		.uleb128 0xb
 866 0019 0B       		.uleb128 0xb
 867 001a 3E       		.uleb128 0x3e
 868 001b 0B       		.uleb128 0xb
 869 001c 03       		.uleb128 0x3
 870 001d 0E       		.uleb128 0xe
 871 001e 00       		.byte	0
 872 001f 00       		.byte	0
 873 0020 03       		.uleb128 0x3
 874 0021 24       		.uleb128 0x24
 875 0022 00       		.byte	0
ARM GAS  C:\Users\Cedric\AppData\Local\Temp\cctuqFaR.s 			page 21


 876 0023 0B       		.uleb128 0xb
 877 0024 0B       		.uleb128 0xb
 878 0025 3E       		.uleb128 0x3e
 879 0026 0B       		.uleb128 0xb
 880 0027 03       		.uleb128 0x3
 881 0028 08       		.uleb128 0x8
 882 0029 00       		.byte	0
 883 002a 00       		.byte	0
 884 002b 04       		.uleb128 0x4
 885 002c 16       		.uleb128 0x16
 886 002d 00       		.byte	0
 887 002e 03       		.uleb128 0x3
 888 002f 0E       		.uleb128 0xe
 889 0030 3A       		.uleb128 0x3a
 890 0031 0B       		.uleb128 0xb
 891 0032 3B       		.uleb128 0x3b
 892 0033 0B       		.uleb128 0xb
 893 0034 49       		.uleb128 0x49
 894 0035 13       		.uleb128 0x13
 895 0036 00       		.byte	0
 896 0037 00       		.byte	0
 897 0038 05       		.uleb128 0x5
 898 0039 2E       		.uleb128 0x2e
 899 003a 01       		.byte	0x1
 900 003b 3F       		.uleb128 0x3f
 901 003c 0C       		.uleb128 0xc
 902 003d 03       		.uleb128 0x3
 903 003e 0E       		.uleb128 0xe
 904 003f 3A       		.uleb128 0x3a
 905 0040 0B       		.uleb128 0xb
 906 0041 3B       		.uleb128 0x3b
 907 0042 0B       		.uleb128 0xb
 908 0043 27       		.uleb128 0x27
 909 0044 0C       		.uleb128 0xc
 910 0045 11       		.uleb128 0x11
 911 0046 01       		.uleb128 0x1
 912 0047 12       		.uleb128 0x12
 913 0048 01       		.uleb128 0x1
 914 0049 40       		.uleb128 0x40
 915 004a 06       		.uleb128 0x6
 916 004b 9642     		.uleb128 0x2116
 917 004d 0C       		.uleb128 0xc
 918 004e 01       		.uleb128 0x1
 919 004f 13       		.uleb128 0x13
 920 0050 00       		.byte	0
 921 0051 00       		.byte	0
 922 0052 06       		.uleb128 0x6
 923 0053 34       		.uleb128 0x34
 924 0054 00       		.byte	0
 925 0055 03       		.uleb128 0x3
 926 0056 0E       		.uleb128 0xe
 927 0057 3A       		.uleb128 0x3a
 928 0058 0B       		.uleb128 0xb
 929 0059 3B       		.uleb128 0x3b
 930 005a 0B       		.uleb128 0xb
 931 005b 49       		.uleb128 0x49
 932 005c 13       		.uleb128 0x13
ARM GAS  C:\Users\Cedric\AppData\Local\Temp\cctuqFaR.s 			page 22


 933 005d 02       		.uleb128 0x2
 934 005e 0A       		.uleb128 0xa
 935 005f 00       		.byte	0
 936 0060 00       		.byte	0
 937 0061 07       		.uleb128 0x7
 938 0062 34       		.uleb128 0x34
 939 0063 00       		.byte	0
 940 0064 03       		.uleb128 0x3
 941 0065 08       		.uleb128 0x8
 942 0066 3A       		.uleb128 0x3a
 943 0067 0B       		.uleb128 0xb
 944 0068 3B       		.uleb128 0x3b
 945 0069 0B       		.uleb128 0xb
 946 006a 49       		.uleb128 0x49
 947 006b 13       		.uleb128 0x13
 948 006c 02       		.uleb128 0x2
 949 006d 0A       		.uleb128 0xa
 950 006e 00       		.byte	0
 951 006f 00       		.byte	0
 952 0070 08       		.uleb128 0x8
 953 0071 2E       		.uleb128 0x2e
 954 0072 00       		.byte	0
 955 0073 3F       		.uleb128 0x3f
 956 0074 0C       		.uleb128 0xc
 957 0075 03       		.uleb128 0x3
 958 0076 0E       		.uleb128 0xe
 959 0077 3A       		.uleb128 0x3a
 960 0078 0B       		.uleb128 0xb
 961 0079 3B       		.uleb128 0x3b
 962 007a 0B       		.uleb128 0xb
 963 007b 49       		.uleb128 0x49
 964 007c 13       		.uleb128 0x13
 965 007d 11       		.uleb128 0x11
 966 007e 01       		.uleb128 0x1
 967 007f 12       		.uleb128 0x12
 968 0080 01       		.uleb128 0x1
 969 0081 40       		.uleb128 0x40
 970 0082 06       		.uleb128 0x6
 971 0083 9642     		.uleb128 0x2116
 972 0085 0C       		.uleb128 0xc
 973 0086 00       		.byte	0
 974 0087 00       		.byte	0
 975 0088 09       		.uleb128 0x9
 976 0089 01       		.uleb128 0x1
 977 008a 01       		.byte	0x1
 978 008b 49       		.uleb128 0x49
 979 008c 13       		.uleb128 0x13
 980 008d 01       		.uleb128 0x1
 981 008e 13       		.uleb128 0x13
 982 008f 00       		.byte	0
 983 0090 00       		.byte	0
 984 0091 0A       		.uleb128 0xa
 985 0092 21       		.uleb128 0x21
 986 0093 00       		.byte	0
 987 0094 49       		.uleb128 0x49
 988 0095 13       		.uleb128 0x13
 989 0096 2F       		.uleb128 0x2f
ARM GAS  C:\Users\Cedric\AppData\Local\Temp\cctuqFaR.s 			page 23


 990 0097 0B       		.uleb128 0xb
 991 0098 00       		.byte	0
 992 0099 00       		.byte	0
 993 009a 0B       		.uleb128 0xb
 994 009b 34       		.uleb128 0x34
 995 009c 00       		.byte	0
 996 009d 03       		.uleb128 0x3
 997 009e 0E       		.uleb128 0xe
 998 009f 3A       		.uleb128 0x3a
 999 00a0 0B       		.uleb128 0xb
 1000 00a1 3B       		.uleb128 0x3b
 1001 00a2 0B       		.uleb128 0xb
 1002 00a3 49       		.uleb128 0x49
 1003 00a4 13       		.uleb128 0x13
 1004 00a5 3F       		.uleb128 0x3f
 1005 00a6 0C       		.uleb128 0xc
 1006 00a7 02       		.uleb128 0x2
 1007 00a8 0A       		.uleb128 0xa
 1008 00a9 00       		.byte	0
 1009 00aa 00       		.byte	0
 1010 00ab 00       		.byte	0
 1011              		.section	.debug_loc,"",%progbits
 1012              	.Ldebug_loc0:
 1013              	.LLST0:
 1014 0000 00000000 		.4byte	.LFB33
 1015 0004 02000000 		.4byte	.LCFI0
 1016 0008 0200     		.2byte	0x2
 1017 000a 7D       		.byte	0x7d
 1018 000b 00       		.sleb128 0
 1019 000c 02000000 		.4byte	.LCFI0
 1020 0010 04000000 		.4byte	.LCFI1
 1021 0014 0200     		.2byte	0x2
 1022 0016 7D       		.byte	0x7d
 1023 0017 08       		.sleb128 8
 1024 0018 04000000 		.4byte	.LCFI1
 1025 001c B4000000 		.4byte	.LFE33
 1026 0020 0200     		.2byte	0x2
 1027 0022 77       		.byte	0x77
 1028 0023 08       		.sleb128 8
 1029 0024 00000000 		.4byte	0
 1030 0028 00000000 		.4byte	0
 1031              	.LLST1:
 1032 002c 00000000 		.4byte	.LFB34
 1033 0030 02000000 		.4byte	.LCFI2
 1034 0034 0200     		.2byte	0x2
 1035 0036 7D       		.byte	0x7d
 1036 0037 00       		.sleb128 0
 1037 0038 02000000 		.4byte	.LCFI2
 1038 003c 04000000 		.4byte	.LCFI3
 1039 0040 0200     		.2byte	0x2
 1040 0042 7D       		.byte	0x7d
 1041 0043 08       		.sleb128 8
 1042 0044 04000000 		.4byte	.LCFI3
 1043 0048 AC000000 		.4byte	.LFE34
 1044 004c 0200     		.2byte	0x2
 1045 004e 77       		.byte	0x77
 1046 004f 08       		.sleb128 8
ARM GAS  C:\Users\Cedric\AppData\Local\Temp\cctuqFaR.s 			page 24


 1047 0050 00000000 		.4byte	0
 1048 0054 00000000 		.4byte	0
 1049              	.LLST2:
 1050 0058 00000000 		.4byte	.LFB35
 1051 005c 02000000 		.4byte	.LCFI4
 1052 0060 0200     		.2byte	0x2
 1053 0062 7D       		.byte	0x7d
 1054 0063 00       		.sleb128 0
 1055 0064 02000000 		.4byte	.LCFI4
 1056 0068 04000000 		.4byte	.LCFI5
 1057 006c 0200     		.2byte	0x2
 1058 006e 7D       		.byte	0x7d
 1059 006f 08       		.sleb128 8
 1060 0070 04000000 		.4byte	.LCFI5
 1061 0074 AC000000 		.4byte	.LFE35
 1062 0078 0200     		.2byte	0x2
 1063 007a 77       		.byte	0x77
 1064 007b 08       		.sleb128 8
 1065 007c 00000000 		.4byte	0
 1066 0080 00000000 		.4byte	0
 1067              	.LLST3:
 1068 0084 00000000 		.4byte	.LFB36
 1069 0088 02000000 		.4byte	.LCFI6
 1070 008c 0200     		.2byte	0x2
 1071 008e 7D       		.byte	0x7d
 1072 008f 00       		.sleb128 0
 1073 0090 02000000 		.4byte	.LCFI6
 1074 0094 04000000 		.4byte	.LCFI7
 1075 0098 0200     		.2byte	0x2
 1076 009a 7D       		.byte	0x7d
 1077 009b 08       		.sleb128 8
 1078 009c 04000000 		.4byte	.LCFI7
 1079 00a0 68000000 		.4byte	.LFE36
 1080 00a4 0200     		.2byte	0x2
 1081 00a6 77       		.byte	0x77
 1082 00a7 08       		.sleb128 8
 1083 00a8 00000000 		.4byte	0
 1084 00ac 00000000 		.4byte	0
 1085              	.LLST4:
 1086 00b0 00000000 		.4byte	.LFB37
 1087 00b4 02000000 		.4byte	.LCFI8
 1088 00b8 0200     		.2byte	0x2
 1089 00ba 7D       		.byte	0x7d
 1090 00bb 00       		.sleb128 0
 1091 00bc 02000000 		.4byte	.LCFI8
 1092 00c0 04000000 		.4byte	.LCFI9
 1093 00c4 0200     		.2byte	0x2
 1094 00c6 7D       		.byte	0x7d
 1095 00c7 08       		.sleb128 8
 1096 00c8 04000000 		.4byte	.LCFI9
 1097 00cc 74000000 		.4byte	.LFE37
 1098 00d0 0200     		.2byte	0x2
 1099 00d2 77       		.byte	0x77
 1100 00d3 08       		.sleb128 8
 1101 00d4 00000000 		.4byte	0
 1102 00d8 00000000 		.4byte	0
 1103              		.section	.debug_aranges,"",%progbits
ARM GAS  C:\Users\Cedric\AppData\Local\Temp\cctuqFaR.s 			page 25


 1104 0000 3C000000 		.4byte	0x3c
 1105 0004 0200     		.2byte	0x2
 1106 0006 00000000 		.4byte	.Ldebug_info0
 1107 000a 04       		.byte	0x4
 1108 000b 00       		.byte	0
 1109 000c 0000     		.2byte	0
 1110 000e 0000     		.2byte	0
 1111 0010 00000000 		.4byte	.LFB33
 1112 0014 B4000000 		.4byte	.LFE33-.LFB33
 1113 0018 00000000 		.4byte	.LFB34
 1114 001c AC000000 		.4byte	.LFE34-.LFB34
 1115 0020 00000000 		.4byte	.LFB35
 1116 0024 AC000000 		.4byte	.LFE35-.LFB35
 1117 0028 00000000 		.4byte	.LFB36
 1118 002c 68000000 		.4byte	.LFE36-.LFB36
 1119 0030 00000000 		.4byte	.LFB37
 1120 0034 74000000 		.4byte	.LFE37-.LFB37
 1121 0038 00000000 		.4byte	0
 1122 003c 00000000 		.4byte	0
 1123              		.section	.debug_ranges,"",%progbits
 1124              	.Ldebug_ranges0:
 1125 0000 00000000 		.4byte	.LFB33
 1126 0004 B4000000 		.4byte	.LFE33
 1127 0008 00000000 		.4byte	.LFB34
 1128 000c AC000000 		.4byte	.LFE34
 1129 0010 00000000 		.4byte	.LFB35
 1130 0014 AC000000 		.4byte	.LFE35
 1131 0018 00000000 		.4byte	.LFB36
 1132 001c 68000000 		.4byte	.LFE36
 1133 0020 00000000 		.4byte	.LFB37
 1134 0024 74000000 		.4byte	.LFE37
 1135 0028 00000000 		.4byte	0
 1136 002c 00000000 		.4byte	0
 1137              		.section	.debug_line,"",%progbits
 1138              	.Ldebug_line0:
 1139 0000 D5000000 		.section	.debug_str,"MS",%progbits,1
 1139      02004500 
 1139      00000201 
 1139      FB0E0D00 
 1139      01010101 
 1140              	.LASF18:
 1141 0000 63707432 		.ascii	"cpt2\000"
 1141      00
 1142              	.LASF11:
 1143 0005 63686172 		.ascii	"char\000"
 1143      00
 1144              	.LASF9:
 1145 000a 666C6F61 		.ascii	"float\000"
 1145      7400
 1146              	.LASF1:
 1147 0010 756E7369 		.ascii	"unsigned char\000"
 1147      676E6564 
 1147      20636861 
 1147      7200
 1148              	.LASF26:
 1149 001e 6D657373 		.ascii	"messagesl1\000"
 1149      61676573 
ARM GAS  C:\Users\Cedric\AppData\Local\Temp\cctuqFaR.s 			page 26


 1149      6C3100
 1150              	.LASF27:
 1151 0029 6D657373 		.ascii	"messagesl2\000"
 1151      61676573 
 1151      6C3200
 1152              	.LASF5:
 1153 0034 6C6F6E67 		.ascii	"long unsigned int\000"
 1153      20756E73 
 1153      69676E65 
 1153      6420696E 
 1153      7400
 1154              	.LASF3:
 1155 0046 73686F72 		.ascii	"short unsigned int\000"
 1155      7420756E 
 1155      7369676E 
 1155      65642069 
 1155      6E7400
 1156              	.LASF10:
 1157 0059 646F7562 		.ascii	"double\000"
 1157      6C6500
 1158              	.LASF29:
 1159 0060 2E5C6D61 		.ascii	".\\main.c\000"
 1159      696E2E63 
 1159      00
 1160              	.LASF31:
 1161 0069 75696E74 		.ascii	"uint32\000"
 1161      333200
 1162              	.LASF15:
 1163 0070 7570646F 		.ascii	"updown1\000"
 1163      776E3100 
 1164              	.LASF20:
 1165 0078 7570646F 		.ascii	"updown2\000"
 1165      776E3200 
 1166              	.LASF24:
 1167 0080 7570646F 		.ascii	"updown3\000"
 1167      776E3300 
 1168              	.LASF8:
 1169 0088 756E7369 		.ascii	"unsigned int\000"
 1169      676E6564 
 1169      20696E74 
 1169      00
 1170              	.LASF7:
 1171 0095 6C6F6E67 		.ascii	"long long unsigned int\000"
 1171      206C6F6E 
 1171      6720756E 
 1171      7369676E 
 1171      65642069 
 1172              	.LASF16:
 1173 00ac 496E7465 		.ascii	"InterruptHandler1\000"
 1173      72727570 
 1173      7448616E 
 1173      646C6572 
 1173      3100
 1174              	.LASF17:
 1175 00be 496E7465 		.ascii	"InterruptHandler2\000"
 1175      72727570 
 1175      7448616E 
ARM GAS  C:\Users\Cedric\AppData\Local\Temp\cctuqFaR.s 			page 27


 1175      646C6572 
 1175      3200
 1176              	.LASF21:
 1177 00d0 496E7465 		.ascii	"InterruptHandler3\000"
 1177      72727570 
 1177      7448616E 
 1177      646C6572 
 1177      3300
 1178              	.LASF25:
 1179 00e2 496E7465 		.ascii	"InterruptHandler4\000"
 1179      72727570 
 1179      7448616E 
 1179      646C6572 
 1179      3400
 1180              	.LASF32:
 1181 00f4 6D61696E 		.ascii	"main\000"
 1181      00
 1182              	.LASF12:
 1183 00f9 73697A65 		.ascii	"sizetype\000"
 1183      74797065 
 1183      00
 1184              	.LASF6:
 1185 0102 6C6F6E67 		.ascii	"long long int\000"
 1185      206C6F6E 
 1185      6720696E 
 1185      7400
 1186              	.LASF14:
 1187 0110 636D7031 		.ascii	"cmp1\000"
 1187      00
 1188              	.LASF19:
 1189 0115 636D7032 		.ascii	"cmp2\000"
 1189      00
 1190              	.LASF23:
 1191 011a 636D7033 		.ascii	"cmp3\000"
 1191      00
 1192              	.LASF2:
 1193 011f 73686F72 		.ascii	"short int\000"
 1193      7420696E 
 1193      7400
 1194              	.LASF28:
 1195 0129 474E5520 		.ascii	"GNU C 4.7.3 20130312 (release) [ARM/embedded-4_7-br"
 1195      4320342E 
 1195      372E3320 
 1195      32303133 
 1195      30333132 
 1196 015c 616E6368 		.ascii	"anch revision 196615]\000"
 1196      20726576 
 1196      6973696F 
 1196      6E203139 
 1196      36363135 
 1197              	.LASF4:
 1198 0172 6C6F6E67 		.ascii	"long int\000"
 1198      20696E74 
 1198      00
 1199              	.LASF13:
 1200 017b 63707431 		.ascii	"cpt1\000"
 1200      00
ARM GAS  C:\Users\Cedric\AppData\Local\Temp\cctuqFaR.s 			page 28


 1201              	.LASF30:
 1202 0180 433A5C55 		.ascii	"C:\\Users\\Cedric\\Google Drive\\Mes Documents\\PSo"
 1202      73657273 
 1202      5C436564 
 1202      7269635C 
 1202      476F6F67 
 1203 01ae 43204372 		.ascii	"C Creator\\cadeau_marraine\\cadeau_marraine.cydsn\000"
 1203      6561746F 
 1203      725C6361 
 1203      64656175 
 1203      5F6D6172 
 1204              	.LASF22:
 1205 01de 63707433 		.ascii	"cpt3\000"
 1205      00
 1206              	.LASF0:
 1207 01e3 7369676E 		.ascii	"signed char\000"
 1207      65642063 
 1207      68617200 
 1208              		.ident	"GCC: (GNU Tools for ARM Embedded Processors) 4.7.3 20130312 (release) [ARM/embedded-4_7-br
