ARM GAS  C:\Users\Cedric\AppData\Local\Temp\cctuqFaR.s 			page 1


   1              		.cpu cortex-m0
   2              		.fpu softvfp
   3              		.eabi_attribute 20, 1
   4              		.eabi_attribute 21, 1
   5              		.eabi_attribute 23, 3
   6              		.eabi_attribute 24, 1
   7              		.eabi_attribute 25, 1
   8              		.eabi_attribute 26, 1
   9              		.eabi_attribute 30, 6
  10              		.eabi_attribute 34, 0
  11              		.eabi_attribute 18, 4
  12              		.code	16
  13              		.file	"main.c"
  14              		.text
  15              	.Ltext0:
  16              		.cfi_sections	.debug_frame
  17              		.global	messagesl1
  18              		.data
  19              		.align	2
  20              		.type	messagesl1, %object
  21              		.size	messagesl1, 170
  22              	messagesl1:
  23 0000 20202020 		.ascii	"     ENSEA      \000"
  23      20454E53 
  23      45412020 
  23      20202020 
  23      00
  24 0011 20204361 		.ascii	"  Cadeau  pour  \000"
  24      64656175 
  24      2020706F 
  24      75722020 
  24      00
  25 0022 20204C65 		.ascii	"  Le numerique  \000"
  25      206E756D 
  25      65726971 
  25      75652020 
  25      00
  26 0033 2020204E 		.ascii	"   Notre Ecole  \000"
  26      6F747265 
  26      2045636F 
  26      6C652020 
  26      00
  27 0044 20202046 		.ascii	"   Fier d'etre  \000"
  27      69657220 
  27      64276574 
  27      72652020 
  27      00
  28 0055 4368657A 		.ascii	"Chez nous l'elec\000"
  28      206E6F75 
  28      73206C27 
  28      656C6563 
  28      00
  29 0066 20205472 		.ascii	"  Trust me I'm  \000"
  29      75737420 
  29      6D652049 
  29      276D2020 
  29      00
ARM GAS  C:\Users\Cedric\AppData\Local\Temp\cctuqFaR.s 			page 2


  30 0077 20205669 		.ascii	"  Vive l'ENSEA  \000"
  30      7665206C 
  30      27454E53 
  30      45412020 
  30      00
  31 0088 436F6E63 		.ascii	"Concu et realise\000"
  31      75206574 
  31      20726561 
  31      6C697365 
  31      00
  32 0099 20546F75 		.ascii	" Toute l'ENSEA  \000"
  32      7465206C 
  32      27454E53 
  32      45412020 
  32      00
  33              		.global	messagesl2
  34 00aa 0000     		.align	2
  35              		.type	messagesl2, %object
  36              		.size	messagesl2, 170
  37              	messagesl2:
  38 00ac 20202050 		.ascii	"   PROMO 2017   \000"
  38      524F4D4F 
  38      20323031 
  38      37202020 
  38      00
  39 00bd 20417865 		.ascii	" Axelle Lemaire \000"
  39      6C6C6520 
  39      4C656D61 
  39      69726520 
  39      00
  40 00ce 2061746F 		.ascii	" atout et force \000"
  40      75742065 
  40      7420666F 
  40      72636520 
  40      00
  41 00df 20204772 		.ascii	"  Grande Ecole  \000"
  41      616E6465 
  41      2045636F 
  41      6C652020 
  41      00
  42 00f0 20202020 		.ascii	"    ENSEArque   \000"
  42      454E5345 
  42      41727175 
  42      65202020 
  42      00
  43 0101 20204320 		.ascii	"  C une coutume \000"
  43      756E6520 
  43      636F7574 
  43      756D6520 
  43      00
  44 0112 2020616E 		.ascii	"  an Engineer   \000"
  44      20456E67 
  44      696E6565 
  44      72202020 
  44      00
  45 0123 20203062 		.ascii	"  0b0000101010  \000"
  45      30303030 
ARM GAS  C:\Users\Cedric\AppData\Local\Temp\cctuqFaR.s 			page 3


  45      31303130 
  45      31302020 
  45      00
  46 0134 20706172 		.ascii	" par ARES ENSEA \000"
  46      20415245 
  46      5320454E 
  46      53454120 
  46      00
  47 0145 2020566F 		.ascii	"  Vous remercie \000"
  47      75732072 
  47      656D6572 
  47      63696520 
  47      00
  48              		.global	__aeabi_idivmod
  49              		.section	.text.InterruptHandler1,"ax",%progbits
  50              		.align	2
  51              		.global	InterruptHandler1
  52              		.code	16
  53              		.thumb_func
  54              		.type	InterruptHandler1, %function
  55              	InterruptHandler1:
  56              	.LFB33:
  57              		.file 1 ".\\main.c"
   1:.\main.c      **** /* ========================================
   2:.\main.c      ****  *
   3:.\main.c      ****  * Copyright ENSEA, 2014
   4:.\main.c      ****  * All Rights Reserved
   5:.\main.c      ****  * UNPUBLISHED, LICENSED SOFTWARE.
   6:.\main.c      ****  * Authors : Cédric PILLET & Antoine TAUVEL
   7:.\main.c      ****  * CONFIDENTIAL AND PROPRIETARY INFORMATION
   8:.\main.c      ****  * WHICH IS THE PROPERTY OF ENSEA.
   9:.\main.c      ****  *
  10:.\main.c      ****  * ========================================
  11:.\main.c      **** */
  12:.\main.c      **** #include <project.h>
  13:.\main.c      **** #define period 9800
  14:.\main.c      **** #define period1 4
  15:.\main.c      **** #define period2 10
  16:.\main.c      **** #define period3 7
  17:.\main.c      **** #define nbmessages 10
  18:.\main.c      **** 
  19:.\main.c      **** char messagesl1[][17] = { 
  20:.\main.c      ****   "     ENSEA      ",
  21:.\main.c      ****   "  Cadeau  pour  ",
  22:.\main.c      ****   "  Le numerique  ",
  23:.\main.c      ****   "   Notre Ecole  ",
  24:.\main.c      ****   "   Fier d'etre  ",
  25:.\main.c      ****   "Chez nous l'elec",
  26:.\main.c      ****   "  Trust me I'm  ",
  27:.\main.c      ****   "  Vive l'ENSEA  ",
  28:.\main.c      ****   "Concu et realise",
  29:.\main.c      ****   " Toute l'ENSEA  "
  30:.\main.c      **** };
  31:.\main.c      **** char messagesl2[][17] = { 
  32:.\main.c      ****   "   PROMO 2017   ",
  33:.\main.c      ****   " Axelle Lemaire ",
  34:.\main.c      ****   " atout et force ",
ARM GAS  C:\Users\Cedric\AppData\Local\Temp\cctuqFaR.s 			page 4


  35:.\main.c      ****   "  Grande Ecole  ",
  36:.\main.c      ****   "    ENSEArque   ",
  37:.\main.c      ****   "  C une coutume ",
  38:.\main.c      ****   "  an Engineer   ",
  39:.\main.c      ****   "  0b0000101010  ",
  40:.\main.c      ****   " par ARES ENSEA ",
  41:.\main.c      ****   "  Vous remercie "
  42:.\main.c      **** };
  43:.\main.c      **** 
  44:.\main.c      **** CY_ISR(InterruptHandler1)
  45:.\main.c      **** {
  58              		.loc 1 45 0
  59              		.cfi_startproc
  60 0000 80B5     		push	{r7, lr}
  61              	.LCFI0:
  62              		.cfi_def_cfa_offset 8
  63              		.cfi_offset 7, -8
  64              		.cfi_offset 14, -4
  65 0002 00AF     		add	r7, sp, #0
  66              	.LCFI1:
  67              		.cfi_def_cfa_register 7
  46:.\main.c      **** 	static int cpt1=0;
  47:.\main.c      **** 	static int cmp1=0;
  48:.\main.c      ****     static int updown1=1;
  49:.\main.c      ****     
  50:.\main.c      ****     cpt1=(cpt1+1)%period1;
  68              		.loc 1 50 0
  69 0004 244B     		ldr	r3, .L7
  70 0006 1B68     		ldr	r3, [r3]
  71 0008 5A1C     		add	r2, r3, #1
  72 000a 244B     		ldr	r3, .L7+4
  73 000c 1340     		and	r3, r2
  74 000e 04D5     		bpl	.L2
  75 0010 013B     		sub	r3, r3, #1
  76 0012 0422     		mov	r2, #4
  77 0014 5242     		neg	r2, r2
  78 0016 1343     		orr	r3, r2
  79 0018 0133     		add	r3, r3, #1
  80              	.L2:
  81 001a 1A1C     		mov	r2, r3
  82 001c 1E4B     		ldr	r3, .L7
  83 001e 1A60     		str	r2, [r3]
  51:.\main.c      **** //    /* Clear TC Inerrupt */
  52:.\main.c      ****    	PWM_1_ClearInterrupt(PWM_1_INTR_MASK_TC);
  84              		.loc 1 52 0
  85 0020 0120     		mov	r0, #1
  86 0022 FFF7FEFF 		bl	PWM_1_ClearInterrupt
  53:.\main.c      **** //    
  54:.\main.c      **** //	/* Increment the Compare for LED brighrness decrease */ 
  55:.\main.c      ****     if (cpt1==0){
  87              		.loc 1 55 0
  88 0026 1C4B     		ldr	r3, .L7
  89 0028 1B68     		ldr	r3, [r3]
  90 002a 002B     		cmp	r3, #0
  91 002c 32D1     		bne	.L1
  56:.\main.c      ****         cmp1 = (cmp1+2) %period;
  92              		.loc 1 56 0
ARM GAS  C:\Users\Cedric\AppData\Local\Temp\cctuqFaR.s 			page 5


  93 002e 1C4B     		ldr	r3, .L7+8
  94 0030 1B68     		ldr	r3, [r3]
  95 0032 0233     		add	r3, r3, #2
  96 0034 181C     		mov	r0, r3
  97 0036 1B49     		ldr	r1, .L7+12
  98 0038 FFF7FEFF 		bl	__aeabi_idivmod
  99 003c 0B1C     		mov	r3, r1
 100 003e 1A1C     		mov	r2, r3
 101 0040 174B     		ldr	r3, .L7+8
 102 0042 1A60     		str	r2, [r3]
  57:.\main.c      ****         if(cmp1 ==0){
 103              		.loc 1 57 0
 104 0044 164B     		ldr	r3, .L7+8
 105 0046 1B68     		ldr	r3, [r3]
 106 0048 002B     		cmp	r3, #0
 107 004a 0DD1     		bne	.L4
  58:.\main.c      ****             updown1=(updown1+1)%2;
 108              		.loc 1 58 0
 109 004c 164B     		ldr	r3, .L7+16
 110 004e 1B68     		ldr	r3, [r3]
 111 0050 5A1C     		add	r2, r3, #1
 112 0052 164B     		ldr	r3, .L7+20
 113 0054 1340     		and	r3, r2
 114 0056 04D5     		bpl	.L5
 115 0058 013B     		sub	r3, r3, #1
 116 005a 0222     		mov	r2, #2
 117 005c 5242     		neg	r2, r2
 118 005e 1343     		orr	r3, r2
 119 0060 0133     		add	r3, r3, #1
 120              	.L5:
 121 0062 1A1C     		mov	r2, r3
 122 0064 104B     		ldr	r3, .L7+16
 123 0066 1A60     		str	r2, [r3]
 124              	.L4:
  59:.\main.c      ****         }
  60:.\main.c      ****         if(updown1==1){
 125              		.loc 1 60 0
 126 0068 0F4B     		ldr	r3, .L7+16
 127 006a 1B68     		ldr	r3, [r3]
 128 006c 012B     		cmp	r3, #1
 129 006e 06D1     		bne	.L6
  61:.\main.c      ****             PWM_1_WriteCompare(100+cmp1);
 130              		.loc 1 61 0
 131 0070 0B4B     		ldr	r3, .L7+8
 132 0072 1B68     		ldr	r3, [r3]
 133 0074 6433     		add	r3, r3, #100
 134 0076 181C     		mov	r0, r3
 135 0078 FFF7FEFF 		bl	PWM_1_WriteCompare
 136 007c 0AE0     		b	.L1
 137              	.L6:
  62:.\main.c      ****         }
  63:.\main.c      ****         else if(updown1==0){
 138              		.loc 1 63 0
 139 007e 0A4B     		ldr	r3, .L7+16
 140 0080 1B68     		ldr	r3, [r3]
 141 0082 002B     		cmp	r3, #0
 142 0084 06D1     		bne	.L1
ARM GAS  C:\Users\Cedric\AppData\Local\Temp\cctuqFaR.s 			page 6


  64:.\main.c      ****             PWM_1_WriteCompare(100+period-cmp1);
 143              		.loc 1 64 0
 144 0086 064B     		ldr	r3, .L7+8
 145 0088 1B68     		ldr	r3, [r3]
 146 008a 094A     		ldr	r2, .L7+24
 147 008c D31A     		sub	r3, r2, r3
 148 008e 181C     		mov	r0, r3
 149 0090 FFF7FEFF 		bl	PWM_1_WriteCompare
 150              	.L1:
  65:.\main.c      ****         }
  66:.\main.c      ****     }
  67:.\main.c      **** 
  68:.\main.c      **** }
 151              		.loc 1 68 0
 152 0094 BD46     		mov	sp, r7
 153              		@ sp needed for prologue
 154 0096 80BD     		pop	{r7, pc}
 155              	.L8:
 156              		.align	2
 157              	.L7:
 158 0098 14000000 		.word	cpt1.5412
 159 009c 03000080 		.word	-2147483645
 160 00a0 18000000 		.word	cmp1.5413
 161 00a4 48260000 		.word	9800
 162 00a8 60010000 		.word	updown1.5414
 163 00ac 01000080 		.word	-2147483647
 164 00b0 AC260000 		.word	9900
 165              		.cfi_endproc
 166              	.LFE33:
 167              		.size	InterruptHandler1, .-InterruptHandler1
 168              		.section	.text.InterruptHandler2,"ax",%progbits
 169              		.align	2
 170              		.global	InterruptHandler2
 171              		.code	16
 172              		.thumb_func
 173              		.type	InterruptHandler2, %function
 174              	InterruptHandler2:
 175              	.LFB34:
  69:.\main.c      **** 
  70:.\main.c      **** CY_ISR(InterruptHandler2)
  71:.\main.c      **** {
 176              		.loc 1 71 0
 177              		.cfi_startproc
 178 0000 80B5     		push	{r7, lr}
 179              	.LCFI2:
 180              		.cfi_def_cfa_offset 8
 181              		.cfi_offset 7, -8
 182              		.cfi_offset 14, -4
 183 0002 00AF     		add	r7, sp, #0
 184              	.LCFI3:
 185              		.cfi_def_cfa_register 7
  72:.\main.c      **** 	static int cpt2=0;
  73:.\main.c      **** 	static int cmp2=0;
  74:.\main.c      ****     static int updown2=1;
  75:.\main.c      ****     
  76:.\main.c      ****     cpt2=(cpt2+1)%period2;
 186              		.loc 1 76 0
ARM GAS  C:\Users\Cedric\AppData\Local\Temp\cctuqFaR.s 			page 7


 187 0004 234B     		ldr	r3, .L14
 188 0006 1B68     		ldr	r3, [r3]
 189 0008 0133     		add	r3, r3, #1
 190 000a 181C     		mov	r0, r3
 191 000c 0A21     		mov	r1, #10
 192 000e FFF7FEFF 		bl	__aeabi_idivmod
 193 0012 0B1C     		mov	r3, r1
 194 0014 1A1C     		mov	r2, r3
 195 0016 1F4B     		ldr	r3, .L14
 196 0018 1A60     		str	r2, [r3]
  77:.\main.c      **** //    /* Clear TC Inerrupt */
  78:.\main.c      ****    	PWM_2_ClearInterrupt(PWM_2_INTR_MASK_TC);
 197              		.loc 1 78 0
 198 001a 0120     		mov	r0, #1
 199 001c FFF7FEFF 		bl	PWM_2_ClearInterrupt
  79:.\main.c      **** //    
  80:.\main.c      **** //	/* Increment the Compare for LED brighrness decrease */ 
  81:.\main.c      ****     if (cpt2==0){
 200              		.loc 1 81 0
 201 0020 1C4B     		ldr	r3, .L14
 202 0022 1B68     		ldr	r3, [r3]
 203 0024 002B     		cmp	r3, #0
 204 0026 32D1     		bne	.L9
  82:.\main.c      ****         cmp2 = (cmp2+2) %period;
 205              		.loc 1 82 0
 206 0028 1B4B     		ldr	r3, .L14+4
 207 002a 1B68     		ldr	r3, [r3]
 208 002c 0233     		add	r3, r3, #2
 209 002e 181C     		mov	r0, r3
 210 0030 1A49     		ldr	r1, .L14+8
 211 0032 FFF7FEFF 		bl	__aeabi_idivmod
 212 0036 0B1C     		mov	r3, r1
 213 0038 1A1C     		mov	r2, r3
 214 003a 174B     		ldr	r3, .L14+4
 215 003c 1A60     		str	r2, [r3]
  83:.\main.c      ****         if(cmp2 ==0){
 216              		.loc 1 83 0
 217 003e 164B     		ldr	r3, .L14+4
 218 0040 1B68     		ldr	r3, [r3]
 219 0042 002B     		cmp	r3, #0
 220 0044 0DD1     		bne	.L11
  84:.\main.c      ****             updown2=(updown2+1)%2;
 221              		.loc 1 84 0
 222 0046 164B     		ldr	r3, .L14+12
 223 0048 1B68     		ldr	r3, [r3]
 224 004a 5A1C     		add	r2, r3, #1
 225 004c 154B     		ldr	r3, .L14+16
 226 004e 1340     		and	r3, r2
 227 0050 04D5     		bpl	.L12
 228 0052 013B     		sub	r3, r3, #1
 229 0054 0222     		mov	r2, #2
 230 0056 5242     		neg	r2, r2
 231 0058 1343     		orr	r3, r2
 232 005a 0133     		add	r3, r3, #1
 233              	.L12:
 234 005c 1A1C     		mov	r2, r3
 235 005e 104B     		ldr	r3, .L14+12
ARM GAS  C:\Users\Cedric\AppData\Local\Temp\cctuqFaR.s 			page 8


 236 0060 1A60     		str	r2, [r3]
 237              	.L11:
  85:.\main.c      ****         }
  86:.\main.c      ****         if(updown2==1){
 238              		.loc 1 86 0
 239 0062 0F4B     		ldr	r3, .L14+12
 240 0064 1B68     		ldr	r3, [r3]
 241 0066 012B     		cmp	r3, #1
 242 0068 06D1     		bne	.L13
  87:.\main.c      ****             PWM_2_WriteCompare(100+cmp2);
 243              		.loc 1 87 0
 244 006a 0B4B     		ldr	r3, .L14+4
 245 006c 1B68     		ldr	r3, [r3]
 246 006e 6433     		add	r3, r3, #100
 247 0070 181C     		mov	r0, r3
 248 0072 FFF7FEFF 		bl	PWM_2_WriteCompare
 249 0076 0AE0     		b	.L9
 250              	.L13:
  88:.\main.c      ****         }
  89:.\main.c      ****         else if(updown2==0){
 251              		.loc 1 89 0
 252 0078 094B     		ldr	r3, .L14+12
 253 007a 1B68     		ldr	r3, [r3]
 254 007c 002B     		cmp	r3, #0
 255 007e 06D1     		bne	.L9
  90:.\main.c      ****             PWM_2_WriteCompare(100+period-cmp2);
 256              		.loc 1 90 0
 257 0080 054B     		ldr	r3, .L14+4
 258 0082 1B68     		ldr	r3, [r3]
 259 0084 084A     		ldr	r2, .L14+20
 260 0086 D31A     		sub	r3, r2, r3
 261 0088 181C     		mov	r0, r3
 262 008a FFF7FEFF 		bl	PWM_2_WriteCompare
 263              	.L9:
  91:.\main.c      ****         }
  92:.\main.c      ****     }
  93:.\main.c      **** 
  94:.\main.c      **** }
 264              		.loc 1 94 0
 265 008e BD46     		mov	sp, r7
 266              		@ sp needed for prologue
 267 0090 80BD     		pop	{r7, pc}
 268              	.L15:
 269 0092 C046     		.align	2
 270              	.L14:
 271 0094 0C000000 		.word	cpt2.5418
 272 0098 10000000 		.word	cmp2.5419
 273 009c 48260000 		.word	9800
 274 00a0 5C010000 		.word	updown2.5420
 275 00a4 01000080 		.word	-2147483647
 276 00a8 AC260000 		.word	9900
 277              		.cfi_endproc
 278              	.LFE34:
 279              		.size	InterruptHandler2, .-InterruptHandler2
 280              		.section	.text.InterruptHandler3,"ax",%progbits
 281              		.align	2
 282              		.global	InterruptHandler3
ARM GAS  C:\Users\Cedric\AppData\Local\Temp\cctuqFaR.s 			page 9


 283              		.code	16
 284              		.thumb_func
 285              		.type	InterruptHandler3, %function
 286              	InterruptHandler3:
 287              	.LFB35:
  95:.\main.c      **** 
  96:.\main.c      **** CY_ISR(InterruptHandler3)
  97:.\main.c      **** {
 288              		.loc 1 97 0
 289              		.cfi_startproc
 290 0000 80B5     		push	{r7, lr}
 291              	.LCFI4:
 292              		.cfi_def_cfa_offset 8
 293              		.cfi_offset 7, -8
 294              		.cfi_offset 14, -4
 295 0002 00AF     		add	r7, sp, #0
 296              	.LCFI5:
 297              		.cfi_def_cfa_register 7
  98:.\main.c      **** 	static int cpt3=0;
  99:.\main.c      **** 	static int cmp3=0;
 100:.\main.c      ****     static int updown3=1;
 101:.\main.c      ****     
 102:.\main.c      ****     cpt3=(cpt3+1)%period3;
 298              		.loc 1 102 0
 299 0004 234B     		ldr	r3, .L21
 300 0006 1B68     		ldr	r3, [r3]
 301 0008 0133     		add	r3, r3, #1
 302 000a 181C     		mov	r0, r3
 303 000c 0721     		mov	r1, #7
 304 000e FFF7FEFF 		bl	__aeabi_idivmod
 305 0012 0B1C     		mov	r3, r1
 306 0014 1A1C     		mov	r2, r3
 307 0016 1F4B     		ldr	r3, .L21
 308 0018 1A60     		str	r2, [r3]
 103:.\main.c      **** //    /* Clear TC Inerrupt */
 104:.\main.c      ****    	PWM_3_ClearInterrupt(PWM_3_INTR_MASK_TC);
 309              		.loc 1 104 0
 310 001a 0120     		mov	r0, #1
 311 001c FFF7FEFF 		bl	PWM_3_ClearInterrupt
 105:.\main.c      **** //    
 106:.\main.c      **** //	/* Increment the Compare for LED brighrness decrease */ 
 107:.\main.c      ****     if (cpt3==0){
 312              		.loc 1 107 0
 313 0020 1C4B     		ldr	r3, .L21
 314 0022 1B68     		ldr	r3, [r3]
 315 0024 002B     		cmp	r3, #0
 316 0026 32D1     		bne	.L16
 108:.\main.c      ****         cmp3 = (cmp3+2) %period;
 317              		.loc 1 108 0
 318 0028 1B4B     		ldr	r3, .L21+4
 319 002a 1B68     		ldr	r3, [r3]
 320 002c 0233     		add	r3, r3, #2
 321 002e 181C     		mov	r0, r3
 322 0030 1A49     		ldr	r1, .L21+8
 323 0032 FFF7FEFF 		bl	__aeabi_idivmod
 324 0036 0B1C     		mov	r3, r1
 325 0038 1A1C     		mov	r2, r3
ARM GAS  C:\Users\Cedric\AppData\Local\Temp\cctuqFaR.s 			page 10


 326 003a 174B     		ldr	r3, .L21+4
 327 003c 1A60     		str	r2, [r3]
 109:.\main.c      ****         if(cmp3==0){
 328              		.loc 1 109 0
 329 003e 164B     		ldr	r3, .L21+4
 330 0040 1B68     		ldr	r3, [r3]
 331 0042 002B     		cmp	r3, #0
 332 0044 0DD1     		bne	.L18
 110:.\main.c      ****             updown3=(updown3+1)%2;
 333              		.loc 1 110 0
 334 0046 164B     		ldr	r3, .L21+12
 335 0048 1B68     		ldr	r3, [r3]
 336 004a 5A1C     		add	r2, r3, #1
 337 004c 154B     		ldr	r3, .L21+16
 338 004e 1340     		and	r3, r2
 339 0050 04D5     		bpl	.L19
 340 0052 013B     		sub	r3, r3, #1
 341 0054 0222     		mov	r2, #2
 342 0056 5242     		neg	r2, r2
 343 0058 1343     		orr	r3, r2
 344 005a 0133     		add	r3, r3, #1
 345              	.L19:
 346 005c 1A1C     		mov	r2, r3
 347 005e 104B     		ldr	r3, .L21+12
 348 0060 1A60     		str	r2, [r3]
 349              	.L18:
 111:.\main.c      ****         }
 112:.\main.c      ****         if(updown3==1){
 350              		.loc 1 112 0
 351 0062 0F4B     		ldr	r3, .L21+12
 352 0064 1B68     		ldr	r3, [r3]
 353 0066 012B     		cmp	r3, #1
 354 0068 06D1     		bne	.L20
 113:.\main.c      ****             PWM_3_WriteCompare(100+cmp3);
 355              		.loc 1 113 0
 356 006a 0B4B     		ldr	r3, .L21+4
 357 006c 1B68     		ldr	r3, [r3]
 358 006e 6433     		add	r3, r3, #100
 359 0070 181C     		mov	r0, r3
 360 0072 FFF7FEFF 		bl	PWM_3_WriteCompare
 361 0076 0AE0     		b	.L16
 362              	.L20:
 114:.\main.c      ****         }
 115:.\main.c      ****         else if(updown3==0){
 363              		.loc 1 115 0
 364 0078 094B     		ldr	r3, .L21+12
 365 007a 1B68     		ldr	r3, [r3]
 366 007c 002B     		cmp	r3, #0
 367 007e 06D1     		bne	.L16
 116:.\main.c      ****             PWM_3_WriteCompare(100+period-cmp3);
 368              		.loc 1 116 0
 369 0080 054B     		ldr	r3, .L21+4
 370 0082 1B68     		ldr	r3, [r3]
 371 0084 084A     		ldr	r2, .L21+20
 372 0086 D31A     		sub	r3, r2, r3
 373 0088 181C     		mov	r0, r3
 374 008a FFF7FEFF 		bl	PWM_3_WriteCompare
ARM GAS  C:\Users\Cedric\AppData\Local\Temp\cctuqFaR.s 			page 11


 375              	.L16:
 117:.\main.c      ****         }
 118:.\main.c      ****     }
 119:.\main.c      **** 
 120:.\main.c      **** }
 376              		.loc 1 120 0
 377 008e BD46     		mov	sp, r7
 378              		@ sp needed for prologue
 379 0090 80BD     		pop	{r7, pc}
 380              	.L22:
 381 0092 C046     		.align	2
 382              	.L21:
 383 0094 04000000 		.word	cpt3.5424
 384 0098 08000000 		.word	cmp3.5425
 385 009c 48260000 		.word	9800
 386 00a0 58010000 		.word	updown3.5426
 387 00a4 01000080 		.word	-2147483647
 388 00a8 AC260000 		.word	9900
 389              		.cfi_endproc
 390              	.LFE35:
 391              		.size	InterruptHandler3, .-InterruptHandler3
 392              		.section	.text.InterruptHandler4,"ax",%progbits
 393              		.align	2
 394              		.global	InterruptHandler4
 395              		.code	16
 396              		.thumb_func
 397              		.type	InterruptHandler4, %function
 398              	InterruptHandler4:
 399              	.LFB36:
 121:.\main.c      **** 
 122:.\main.c      **** CY_ISR(InterruptHandler4)
 123:.\main.c      **** {
 400              		.loc 1 123 0
 401              		.cfi_startproc
 402 0000 80B5     		push	{r7, lr}
 403              	.LCFI6:
 404              		.cfi_def_cfa_offset 8
 405              		.cfi_offset 7, -8
 406              		.cfi_offset 14, -4
 407 0002 00AF     		add	r7, sp, #0
 408              	.LCFI7:
 409              		.cfi_def_cfa_register 7
 124:.\main.c      ****     static int i=0;
 125:.\main.c      ****     
 126:.\main.c      ****     TIM_4_ClearInterrupt(TIM_4__INTR_MASK_TC);
 410              		.loc 1 126 0
 411 0004 0120     		mov	r0, #1
 412 0006 FFF7FEFF 		bl	TIM_4_ClearInterrupt
 127:.\main.c      ****     
 128:.\main.c      ****     LCD_Char_1_ClearDisplay();
 413              		.loc 1 128 0
 414 000a 0120     		mov	r0, #1
 415 000c FFF7FEFF 		bl	LCD_Char_1_WriteControl
 129:.\main.c      **** 
 130:.\main.c      ****     LCD_Char_1_PrintString(messagesl1[i]);
 416              		.loc 1 130 0
 417 0010 124B     		ldr	r3, .L24
ARM GAS  C:\Users\Cedric\AppData\Local\Temp\cctuqFaR.s 			page 12


 418 0012 1A68     		ldr	r2, [r3]
 419 0014 131C     		mov	r3, r2
 420 0016 1B01     		lsl	r3, r3, #4
 421 0018 9B18     		add	r3, r3, r2
 422 001a 114A     		ldr	r2, .L24+4
 423 001c 9B18     		add	r3, r3, r2
 424 001e 181C     		mov	r0, r3
 425 0020 FFF7FEFF 		bl	LCD_Char_1_PrintString
 131:.\main.c      ****     LCD_Char_1_Position(1u, 0u);
 426              		.loc 1 131 0
 427 0024 0120     		mov	r0, #1
 428 0026 0021     		mov	r1, #0
 429 0028 FFF7FEFF 		bl	LCD_Char_1_Position
 132:.\main.c      ****     LCD_Char_1_PrintString(messagesl2[i]);
 430              		.loc 1 132 0
 431 002c 0B4B     		ldr	r3, .L24
 432 002e 1A68     		ldr	r2, [r3]
 433 0030 131C     		mov	r3, r2
 434 0032 1B01     		lsl	r3, r3, #4
 435 0034 9B18     		add	r3, r3, r2
 436 0036 0B4A     		ldr	r2, .L24+8
 437 0038 9B18     		add	r3, r3, r2
 438 003a 181C     		mov	r0, r3
 439 003c FFF7FEFF 		bl	LCD_Char_1_PrintString
 133:.\main.c      **** 
 134:.\main.c      ****     i=(i+1)%nbmessages;
 440              		.loc 1 134 0
 441 0040 064B     		ldr	r3, .L24
 442 0042 1B68     		ldr	r3, [r3]
 443 0044 0133     		add	r3, r3, #1
 444 0046 181C     		mov	r0, r3
 445 0048 0A21     		mov	r1, #10
 446 004a FFF7FEFF 		bl	__aeabi_idivmod
 447 004e 0B1C     		mov	r3, r1
 448 0050 1A1C     		mov	r2, r3
 449 0052 024B     		ldr	r3, .L24
 450 0054 1A60     		str	r2, [r3]
 135:.\main.c      **** 
 136:.\main.c      **** 
 137:.\main.c      **** }
 451              		.loc 1 137 0
 452 0056 BD46     		mov	sp, r7
 453              		@ sp needed for prologue
 454 0058 80BD     		pop	{r7, pc}
 455              	.L25:
 456 005a C046     		.align	2
 457              	.L24:
 458 005c 00000000 		.word	i.5430
 459 0060 00000000 		.word	messagesl1
 460 0064 00000000 		.word	messagesl2
 461              		.cfi_endproc
 462              	.LFE36:
 463              		.size	InterruptHandler4, .-InterruptHandler4
 464              		.section	.rodata
 465              		.align	2
 466              	.LC16:
 467 0000 2050726F 		.ascii	" Projet SPECIAL \000"
ARM GAS  C:\Users\Cedric\AppData\Local\Temp\cctuqFaR.s 			page 13


 467      6A657420 
 467      53504543 
 467      49414C20 
 467      00
 468 0011 000000   		.align	2
 469              	.LC18:
 470 0014 20204261 		.ascii	"  Bapteme promo \000"
 470      7074656D 
 470      65207072 
 470      6F6D6F20 
 470      00
 471 0025 000000   		.section	.text.main,"ax",%progbits
 472              		.align	2
 473              		.global	main
 474              		.code	16
 475              		.thumb_func
 476              		.type	main, %function
 477              	main:
 478              	.LFB37:
 138:.\main.c      **** 
 139:.\main.c      **** int main()
 140:.\main.c      **** {
 479              		.loc 1 140 0
 480              		.cfi_startproc
 481 0000 80B5     		push	{r7, lr}
 482              	.LCFI8:
 483              		.cfi_def_cfa_offset 8
 484              		.cfi_offset 7, -8
 485              		.cfi_offset 14, -4
 486 0002 00AF     		add	r7, sp, #0
 487              	.LCFI9:
 488              		.cfi_def_cfa_register 7
 141:.\main.c      ****     //allow global interrupt
 142:.\main.c      ****     CyGlobalIntEnable;
 489              		.loc 1 142 0
 490              	@ 142 ".\main.c" 1
 491 0004 62B6     		CPSIE   i
 492              	@ 0 "" 2
 143:.\main.c      ****  
 144:.\main.c      ****     /* Enable the Interrupt component connected to interrupt */
 145:.\main.c      ****     
 146:.\main.c      ****     TC1_ISR_StartEx(InterruptHandler1);
 493              		.loc 1 146 0
 494              		.code	16
 495 0006 154B     		ldr	r3, .L28
 496 0008 181C     		mov	r0, r3
 497 000a FFF7FEFF 		bl	TC1_ISR_StartEx
 147:.\main.c      ****     TC2_ISR_StartEx(InterruptHandler2);
 498              		.loc 1 147 0
 499 000e 144B     		ldr	r3, .L28+4
 500 0010 181C     		mov	r0, r3
 501 0012 FFF7FEFF 		bl	TC2_ISR_StartEx
 148:.\main.c      ****     TC3_ISR_StartEx(InterruptHandler3);
 502              		.loc 1 148 0
 503 0016 134B     		ldr	r3, .L28+8
 504 0018 181C     		mov	r0, r3
 505 001a FFF7FEFF 		bl	TC3_ISR_StartEx
ARM GAS  C:\Users\Cedric\AppData\Local\Temp\cctuqFaR.s 			page 14


 149:.\main.c      ****     TC4_ISR_StartEx(InterruptHandler4);
 506              		.loc 1 149 0
 507 001e 124B     		ldr	r3, .L28+12
 508 0020 181C     		mov	r0, r3
 509 0022 FFF7FEFF 		bl	TC4_ISR_StartEx
 150:.\main.c      ****     
 151:.\main.c      ****     //initialisation LCD
 152:.\main.c      ****     LCD_Char_1_Start();
 510              		.loc 1 152 0
 511 0026 FFF7FEFF 		bl	LCD_Char_1_Start
 153:.\main.c      **** 
 154:.\main.c      ****     
 155:.\main.c      ****     /* Initialisation affichage */
 156:.\main.c      ****     LCD_Char_1_Position(0u, 0u);
 512              		.loc 1 156 0
 513 002a 0020     		mov	r0, #0
 514 002c 0021     		mov	r1, #0
 515 002e FFF7FEFF 		bl	LCD_Char_1_Position
 157:.\main.c      ****     LCD_Char_1_PrintString(" Projet SPECIAL ");
 516              		.loc 1 157 0
 517 0032 0E4B     		ldr	r3, .L28+16
 518 0034 181C     		mov	r0, r3
 519 0036 FFF7FEFF 		bl	LCD_Char_1_PrintString
 158:.\main.c      ****     LCD_Char_1_Position(1u, 0u);
 520              		.loc 1 158 0
 521 003a 0120     		mov	r0, #1
 522 003c 0021     		mov	r1, #0
 523 003e FFF7FEFF 		bl	LCD_Char_1_Position
 159:.\main.c      ****     LCD_Char_1_PrintString("  Bapteme promo ");
 524              		.loc 1 159 0
 525 0042 0B4B     		ldr	r3, .L28+20
 526 0044 181C     		mov	r0, r3
 527 0046 FFF7FEFF 		bl	LCD_Char_1_PrintString
 160:.\main.c      ****     //CyDelay(2000);
 161:.\main.c      ****     //LCD_Char_1_ClearDisplay();
 162:.\main.c      ****     //CyDelay(2000);
 163:.\main.c      **** 
 164:.\main.c      ****  
 165:.\main.c      **** 
 166:.\main.c      ****     //initialisation des PWMs 
 167:.\main.c      ****     PWM_1_Start();
 528              		.loc 1 167 0
 529 004a FFF7FEFF 		bl	PWM_1_Start
 168:.\main.c      ****     PWM_3_Start();
 530              		.loc 1 168 0
 531 004e FFF7FEFF 		bl	PWM_3_Start
 169:.\main.c      ****     PWM_2_Start();
 532              		.loc 1 169 0
 533 0052 FFF7FEFF 		bl	PWM_2_Start
 170:.\main.c      ****     TIM_4_Start();
 534              		.loc 1 170 0
 535 0056 FFF7FEFF 		bl	TIM_4_Start
 536              	.L27:
 171:.\main.c      **** 
 172:.\main.c      ****     
 173:.\main.c      **** 
 174:.\main.c      **** 
ARM GAS  C:\Users\Cedric\AppData\Local\Temp\cctuqFaR.s 			page 15


 175:.\main.c      ****     for(;;)
 176:.\main.c      ****     {   
 177:.\main.c      ****     }
 537              		.loc 1 177 0 discriminator 1
 538 005a FEE7     		b	.L27
 539              	.L29:
 540              		.align	2
 541              	.L28:
 542 005c 00000000 		.word	InterruptHandler1
 543 0060 00000000 		.word	InterruptHandler2
 544 0064 00000000 		.word	InterruptHandler3
 545 0068 00000000 		.word	InterruptHandler4
 546 006c 00000000 		.word	.LC16
 547 0070 14000000 		.word	.LC18
 548              		.cfi_endproc
 549              	.LFE37:
 550              		.size	main, .-main
 551              		.bss
 552              		.align	2
 553              	i.5430:
 554 0000 00000000 		.space	4
 555              		.align	2
 556              	cpt3.5424:
 557 0004 00000000 		.space	4
 558              		.align	2
 559              	cmp3.5425:
 560 0008 00000000 		.space	4
 561              		.data
 562 0156 0000     		.align	2
 563              		.type	updown3.5426, %object
 564              		.size	updown3.5426, 4
 565              	updown3.5426:
 566 0158 01000000 		.word	1
 567              		.bss
 568              		.align	2
 569              	cpt2.5418:
 570 000c 00000000 		.space	4
 571              		.align	2
 572              	cmp2.5419:
 573 0010 00000000 		.space	4
 574              		.data
 575              		.align	2
 576              		.type	updown2.5420, %object
 577              		.size	updown2.5420, 4
 578              	updown2.5420:
 579 015c 01000000 		.word	1
 580              		.bss
 581              		.align	2
 582              	cpt1.5412:
 583 0014 00000000 		.space	4
 584              		.align	2
 585              	cmp1.5413:
 586 0018 00000000 		.space	4
 587              		.data
 588              		.align	2
 589              		.type	updown1.5414, %object
 590              		.size	updown1.5414, 4
ARM GAS  C:\Users\Cedric\AppData\Local\Temp\cctuqFaR.s 			page 16


 591              	updown1.5414:
 592 0160 01000000 		.word	1
 593              		.text
 594              	.Letext0:
 595              		.file 2 "./Generated_Source/PSoC4/cytypes.h"