ARM GAS  C:\Users\Cedric\AppData\Local\Temp\cczZ6omP.s 			page 1


   1              		.cpu cortex-m0
   2              		.fpu softvfp
   3              		.eabi_attribute 20, 1
   4              		.eabi_attribute 21, 1
   5              		.eabi_attribute 23, 3
   6              		.eabi_attribute 24, 1
   7              		.eabi_attribute 25, 1
   8              		.eabi_attribute 26, 1
   9              		.eabi_attribute 30, 6
  10              		.eabi_attribute 34, 0
  11              		.eabi_attribute 18, 4
  12              		.code	16
  13              		.file	"main.c"
  14              		.text
  15              	.Ltext0:
  16              		.cfi_sections	.debug_frame
  17              		.global	messagesl1
  18              		.data
  19              		.align	2
  20              		.type	messagesl1, %object
  21              		.size	messagesl1, 160
  22              	messagesl1:
  23 0000 20202020 		.ascii	"      ENSEA     "
  23      2020454E 
  23      53454120 
  23      20202020 
  24 0010 20202020 		.ascii	"    You are     "
  24      596F7520 
  24      61726520 
  24      20202020 
  25 0020 48616D6D 		.ascii	"Hamming\000"
  25      696E6700 
  26 0028 00000000 		.space	8
  26      00000000 
  27 0030 4D696E73 		.ascii	"Minsky\000"
  27      6B7900
  28 0037 00000000 		.space	9
  28      00000000 
  28      00
  29 0040 57696C6B 		.ascii	"Wilkinson\000"
  29      696E736F 
  29      6E00
  30 004a 00000000 		.space	6
  30      0000
  31 0050 4D634361 		.ascii	"McCarthy\000"
  31      72746879 
  31      00
  32 0059 00000000 		.space	7
  32      000000
  33 0060 44696A6B 		.ascii	"Dijkstra\000"
  33      73747261 
  33      00
  34 0069 00000000 		.space	7
  34      000000
  35 0070 42616368 		.ascii	"Bachman\000"
  35      6D616E00 
  36 0078 00000000 		.space	8
ARM GAS  C:\Users\Cedric\AppData\Local\Temp\cczZ6omP.s 			page 2


  36      00000000 
  37 0080 4B6E7574 		.ascii	"Knuth\000"
  37      6800
  38 0086 00000000 		.space	10
  38      00000000 
  38      0000
  39 0090 4E657765 		.ascii	"Newell & Simon\000"
  39      6C6C2026 
  39      2053696D 
  39      6F6E00
  40 009f 00       		.space	1
  41              		.global	messagesl2
  42              		.align	2
  43              		.type	messagesl2, %object
  44              		.size	messagesl2, 160
  45              	messagesl2:
  46 00a0 20202050 		.ascii	"   PROMO 2017   "
  46      524F4D4F 
  46      20323031 
  46      37202020 
  47 00b0 20202020 		.ascii	"    AWESOME     "
  47      41574553 
  47      4F4D4520 
  47      20202020 
  48 00c0 48616D6D 		.ascii	"Hamming\000"
  48      696E6700 
  49 00c8 00000000 		.space	8
  49      00000000 
  50 00d0 4D696E73 		.ascii	"Minsky\000"
  50      6B7900
  51 00d7 00000000 		.space	9
  51      00000000 
  51      00
  52 00e0 57696C6B 		.ascii	"Wilkinson\000"
  52      696E736F 
  52      6E00
  53 00ea 00000000 		.space	6
  53      0000
  54 00f0 4D634361 		.ascii	"McCarthy\000"
  54      72746879 
  54      00
  55 00f9 00000000 		.space	7
  55      000000
  56 0100 44696A6B 		.ascii	"Dijkstra\000"
  56      73747261 
  56      00
  57 0109 00000000 		.space	7
  57      000000
  58 0110 42616368 		.ascii	"Bachman\000"
  58      6D616E00 
  59 0118 00000000 		.space	8
  59      00000000 
  60 0120 4B6E7574 		.ascii	"Knuth\000"
  60      6800
  61 0126 00000000 		.space	10
  61      00000000 
  61      0000
ARM GAS  C:\Users\Cedric\AppData\Local\Temp\cczZ6omP.s 			page 3


  62 0130 4E657765 		.ascii	"Newell & Simon\000"
  62      6C6C2026 
  62      2053696D 
  62      6F6E00
  63 013f 00       		.space	1
  64              		.global	__aeabi_idivmod
  65              		.section	.text.InterruptHandler1,"ax",%progbits
  66              		.align	2
  67              		.global	InterruptHandler1
  68              		.code	16
  69              		.thumb_func
  70              		.type	InterruptHandler1, %function
  71              	InterruptHandler1:
  72              	.LFB33:
  73              		.file 1 ".\\main.c"
   1:.\main.c      **** /* ========================================
   2:.\main.c      ****  *
   3:.\main.c      ****  * Copyright ENSEA, 2014
   4:.\main.c      ****  * All Rights Reserved
   5:.\main.c      ****  * UNPUBLISHED, LICENSED SOFTWARE.
   6:.\main.c      ****  * Authors : Cédric PILLET & Antoine TAUVEL
   7:.\main.c      ****  * CONFIDENTIAL AND PROPRIETARY INFORMATION
   8:.\main.c      ****  * WHICH IS THE PROPERTY OF ENSEA.
   9:.\main.c      ****  *
  10:.\main.c      ****  * ========================================
  11:.\main.c      **** */
  12:.\main.c      **** #include <project.h>
  13:.\main.c      **** #define period 9800
  14:.\main.c      **** #define period1 4
  15:.\main.c      **** #define period2 6
  16:.\main.c      **** #define period3 9
  17:.\main.c      **** #define nbmessages 10
  18:.\main.c      **** 
  19:.\main.c      **** char messagesl1[nbmessages][16] = { 
  20:.\main.c      ****   "      ENSEA     ",
  21:.\main.c      ****   "    You are     ",
  22:.\main.c      ****   "Hamming",
  23:.\main.c      ****   "Minsky",
  24:.\main.c      ****   "Wilkinson",
  25:.\main.c      ****   "McCarthy",
  26:.\main.c      ****   "Dijkstra",
  27:.\main.c      ****   "Bachman",
  28:.\main.c      ****   "Knuth",
  29:.\main.c      ****   "Newell & Simon"
  30:.\main.c      **** };
  31:.\main.c      **** char messagesl2[nbmessages][16] = { 
  32:.\main.c      ****   "   PROMO 2017   ",
  33:.\main.c      ****   "    AWESOME     ",
  34:.\main.c      ****   "Hamming",
  35:.\main.c      ****   "Minsky",
  36:.\main.c      ****   "Wilkinson",
  37:.\main.c      ****   "McCarthy",
  38:.\main.c      ****   "Dijkstra",
  39:.\main.c      ****   "Bachman",
  40:.\main.c      ****   "Knuth",
  41:.\main.c      ****   "Newell & Simon"
  42:.\main.c      **** };
ARM GAS  C:\Users\Cedric\AppData\Local\Temp\cczZ6omP.s 			page 4


  43:.\main.c      **** 
  44:.\main.c      **** CY_ISR(InterruptHandler1)
  45:.\main.c      **** {
  74              		.loc 1 45 0
  75              		.cfi_startproc
  76 0000 80B5     		push	{r7, lr}
  77              	.LCFI0:
  78              		.cfi_def_cfa_offset 8
  79              		.cfi_offset 7, -8
  80              		.cfi_offset 14, -4
  81 0002 00AF     		add	r7, sp, #0
  82              	.LCFI1:
  83              		.cfi_def_cfa_register 7
  46:.\main.c      **** 	static int cpt1=0;
  47:.\main.c      **** 	static int cmp1=0;
  48:.\main.c      ****     static int updown1=1;
  49:.\main.c      ****     
  50:.\main.c      ****     cpt1=(cpt1+1)%period1;
  84              		.loc 1 50 0
  85 0004 244B     		ldr	r3, .L7
  86 0006 1B68     		ldr	r3, [r3]
  87 0008 5A1C     		add	r2, r3, #1
  88 000a 244B     		ldr	r3, .L7+4
  89 000c 1340     		and	r3, r2
  90 000e 04D5     		bpl	.L2
  91 0010 013B     		sub	r3, r3, #1
  92 0012 0422     		mov	r2, #4
  93 0014 5242     		neg	r2, r2
  94 0016 1343     		orr	r3, r2
  95 0018 0133     		add	r3, r3, #1
  96              	.L2:
  97 001a 1A1C     		mov	r2, r3
  98 001c 1E4B     		ldr	r3, .L7
  99 001e 1A60     		str	r2, [r3]
  51:.\main.c      **** //    /* Clear TC Inerrupt */
  52:.\main.c      ****    	PWM_1_ClearInterrupt(PWM_1_INTR_MASK_TC);
 100              		.loc 1 52 0
 101 0020 0120     		mov	r0, #1
 102 0022 FFF7FEFF 		bl	PWM_1_ClearInterrupt
  53:.\main.c      **** //    
  54:.\main.c      **** //	/* Increment the Compare for LED brighrness decrease */ 
  55:.\main.c      ****     if (cpt1==0){
 103              		.loc 1 55 0
 104 0026 1C4B     		ldr	r3, .L7
 105 0028 1B68     		ldr	r3, [r3]
 106 002a 002B     		cmp	r3, #0
 107 002c 32D1     		bne	.L1
  56:.\main.c      ****         cmp1 = (cmp1+2) %period;
 108              		.loc 1 56 0
 109 002e 1C4B     		ldr	r3, .L7+8
 110 0030 1B68     		ldr	r3, [r3]
 111 0032 0233     		add	r3, r3, #2
 112 0034 181C     		mov	r0, r3
 113 0036 1B49     		ldr	r1, .L7+12
 114 0038 FFF7FEFF 		bl	__aeabi_idivmod
 115 003c 0B1C     		mov	r3, r1
 116 003e 1A1C     		mov	r2, r3
ARM GAS  C:\Users\Cedric\AppData\Local\Temp\cczZ6omP.s 			page 5


 117 0040 174B     		ldr	r3, .L7+8
 118 0042 1A60     		str	r2, [r3]
  57:.\main.c      ****         if(cmp1 ==0){
 119              		.loc 1 57 0
 120 0044 164B     		ldr	r3, .L7+8
 121 0046 1B68     		ldr	r3, [r3]
 122 0048 002B     		cmp	r3, #0
 123 004a 0DD1     		bne	.L4
  58:.\main.c      ****             updown1=(updown1+1)%2;
 124              		.loc 1 58 0
 125 004c 164B     		ldr	r3, .L7+16
 126 004e 1B68     		ldr	r3, [r3]
 127 0050 5A1C     		add	r2, r3, #1
 128 0052 164B     		ldr	r3, .L7+20
 129 0054 1340     		and	r3, r2
 130 0056 04D5     		bpl	.L5
 131 0058 013B     		sub	r3, r3, #1
 132 005a 0222     		mov	r2, #2
 133 005c 5242     		neg	r2, r2
 134 005e 1343     		orr	r3, r2
 135 0060 0133     		add	r3, r3, #1
 136              	.L5:
 137 0062 1A1C     		mov	r2, r3
 138 0064 104B     		ldr	r3, .L7+16
 139 0066 1A60     		str	r2, [r3]
 140              	.L4:
  59:.\main.c      ****         }
  60:.\main.c      ****         if(updown1==1){
 141              		.loc 1 60 0
 142 0068 0F4B     		ldr	r3, .L7+16
 143 006a 1B68     		ldr	r3, [r3]
 144 006c 012B     		cmp	r3, #1
 145 006e 06D1     		bne	.L6
  61:.\main.c      ****             PWM_1_WriteCompare(100+cmp1);
 146              		.loc 1 61 0
 147 0070 0B4B     		ldr	r3, .L7+8
 148 0072 1B68     		ldr	r3, [r3]
 149 0074 6433     		add	r3, r3, #100
 150 0076 181C     		mov	r0, r3
 151 0078 FFF7FEFF 		bl	PWM_1_WriteCompare
 152 007c 0AE0     		b	.L1
 153              	.L6:
  62:.\main.c      ****         }
  63:.\main.c      ****         else if(updown1==0){
 154              		.loc 1 63 0
 155 007e 0A4B     		ldr	r3, .L7+16
 156 0080 1B68     		ldr	r3, [r3]
 157 0082 002B     		cmp	r3, #0
 158 0084 06D1     		bne	.L1
  64:.\main.c      ****             PWM_1_WriteCompare(100+period-cmp1);
 159              		.loc 1 64 0
 160 0086 064B     		ldr	r3, .L7+8
 161 0088 1B68     		ldr	r3, [r3]
 162 008a 094A     		ldr	r2, .L7+24
 163 008c D31A     		sub	r3, r2, r3
 164 008e 181C     		mov	r0, r3
 165 0090 FFF7FEFF 		bl	PWM_1_WriteCompare
ARM GAS  C:\Users\Cedric\AppData\Local\Temp\cczZ6omP.s 			page 6


 166              	.L1:
  65:.\main.c      ****         }
  66:.\main.c      ****     }
  67:.\main.c      **** 
  68:.\main.c      **** }
 167              		.loc 1 68 0
 168 0094 BD46     		mov	sp, r7
 169              		@ sp needed for prologue
 170 0096 80BD     		pop	{r7, pc}
 171              	.L8:
 172              		.align	2
 173              	.L7:
 174 0098 14000000 		.word	cpt1.5412
 175 009c 03000080 		.word	-2147483645
 176 00a0 18000000 		.word	cmp1.5413
 177 00a4 48260000 		.word	9800
 178 00a8 48010000 		.word	updown1.5414
 179 00ac 01000080 		.word	-2147483647
 180 00b0 AC260000 		.word	9900
 181              		.cfi_endproc
 182              	.LFE33:
 183              		.size	InterruptHandler1, .-InterruptHandler1
 184              		.section	.text.InterruptHandler2,"ax",%progbits
 185              		.align	2
 186              		.global	InterruptHandler2
 187              		.code	16
 188              		.thumb_func
 189              		.type	InterruptHandler2, %function
 190              	InterruptHandler2:
 191              	.LFB34:
  69:.\main.c      **** 
  70:.\main.c      **** CY_ISR(InterruptHandler2)
  71:.\main.c      **** {
 192              		.loc 1 71 0
 193              		.cfi_startproc
 194 0000 80B5     		push	{r7, lr}
 195              	.LCFI2:
 196              		.cfi_def_cfa_offset 8
 197              		.cfi_offset 7, -8
 198              		.cfi_offset 14, -4
 199 0002 00AF     		add	r7, sp, #0
 200              	.LCFI3:
 201              		.cfi_def_cfa_register 7
  72:.\main.c      **** 	static int cpt2=0;
  73:.\main.c      **** 	static int cmp2=0;
  74:.\main.c      ****     static int updown2=1;
  75:.\main.c      ****     
  76:.\main.c      ****     cpt2=(cpt2+1)%period2;
 202              		.loc 1 76 0
 203 0004 234B     		ldr	r3, .L14
 204 0006 1B68     		ldr	r3, [r3]
 205 0008 0133     		add	r3, r3, #1
 206 000a 181C     		mov	r0, r3
 207 000c 0621     		mov	r1, #6
 208 000e FFF7FEFF 		bl	__aeabi_idivmod
 209 0012 0B1C     		mov	r3, r1
 210 0014 1A1C     		mov	r2, r3
ARM GAS  C:\Users\Cedric\AppData\Local\Temp\cczZ6omP.s 			page 7


 211 0016 1F4B     		ldr	r3, .L14
 212 0018 1A60     		str	r2, [r3]
  77:.\main.c      **** //    /* Clear TC Inerrupt */
  78:.\main.c      ****    	PWM_2_ClearInterrupt(PWM_2_INTR_MASK_TC);
 213              		.loc 1 78 0
 214 001a 0120     		mov	r0, #1
 215 001c FFF7FEFF 		bl	PWM_2_ClearInterrupt
  79:.\main.c      **** //    
  80:.\main.c      **** //	/* Increment the Compare for LED brighrness decrease */ 
  81:.\main.c      ****     if (cpt2==0){
 216              		.loc 1 81 0
 217 0020 1C4B     		ldr	r3, .L14
 218 0022 1B68     		ldr	r3, [r3]
 219 0024 002B     		cmp	r3, #0
 220 0026 32D1     		bne	.L9
  82:.\main.c      ****         cmp2 = (cmp2+2) %period;
 221              		.loc 1 82 0
 222 0028 1B4B     		ldr	r3, .L14+4
 223 002a 1B68     		ldr	r3, [r3]
 224 002c 0233     		add	r3, r3, #2
 225 002e 181C     		mov	r0, r3
 226 0030 1A49     		ldr	r1, .L14+8
 227 0032 FFF7FEFF 		bl	__aeabi_idivmod
 228 0036 0B1C     		mov	r3, r1
 229 0038 1A1C     		mov	r2, r3
 230 003a 174B     		ldr	r3, .L14+4
 231 003c 1A60     		str	r2, [r3]
  83:.\main.c      ****         if(cmp2 ==0){
 232              		.loc 1 83 0
 233 003e 164B     		ldr	r3, .L14+4
 234 0040 1B68     		ldr	r3, [r3]
 235 0042 002B     		cmp	r3, #0
 236 0044 0DD1     		bne	.L11
  84:.\main.c      ****             updown2=(updown2+1)%2;
 237              		.loc 1 84 0
 238 0046 164B     		ldr	r3, .L14+12
 239 0048 1B68     		ldr	r3, [r3]
 240 004a 5A1C     		add	r2, r3, #1
 241 004c 154B     		ldr	r3, .L14+16
 242 004e 1340     		and	r3, r2
 243 0050 04D5     		bpl	.L12
 244 0052 013B     		sub	r3, r3, #1
 245 0054 0222     		mov	r2, #2
 246 0056 5242     		neg	r2, r2
 247 0058 1343     		orr	r3, r2
 248 005a 0133     		add	r3, r3, #1
 249              	.L12:
 250 005c 1A1C     		mov	r2, r3
 251 005e 104B     		ldr	r3, .L14+12
 252 0060 1A60     		str	r2, [r3]
 253              	.L11:
  85:.\main.c      ****         }
  86:.\main.c      ****         if(updown2==1){
 254              		.loc 1 86 0
 255 0062 0F4B     		ldr	r3, .L14+12
 256 0064 1B68     		ldr	r3, [r3]
 257 0066 012B     		cmp	r3, #1
ARM GAS  C:\Users\Cedric\AppData\Local\Temp\cczZ6omP.s 			page 8


 258 0068 06D1     		bne	.L13
  87:.\main.c      ****             PWM_2_WriteCompare(100+cmp2);
 259              		.loc 1 87 0
 260 006a 0B4B     		ldr	r3, .L14+4
 261 006c 1B68     		ldr	r3, [r3]
 262 006e 6433     		add	r3, r3, #100
 263 0070 181C     		mov	r0, r3
 264 0072 FFF7FEFF 		bl	PWM_2_WriteCompare
 265 0076 0AE0     		b	.L9
 266              	.L13:
  88:.\main.c      ****         }
  89:.\main.c      ****         else if(updown2==0){
 267              		.loc 1 89 0
 268 0078 094B     		ldr	r3, .L14+12
 269 007a 1B68     		ldr	r3, [r3]
 270 007c 002B     		cmp	r3, #0
 271 007e 06D1     		bne	.L9
  90:.\main.c      ****             PWM_2_WriteCompare(100+period-cmp2);
 272              		.loc 1 90 0
 273 0080 054B     		ldr	r3, .L14+4
 274 0082 1B68     		ldr	r3, [r3]
 275 0084 084A     		ldr	r2, .L14+20
 276 0086 D31A     		sub	r3, r2, r3
 277 0088 181C     		mov	r0, r3
 278 008a FFF7FEFF 		bl	PWM_2_WriteCompare
 279              	.L9:
  91:.\main.c      ****         }
  92:.\main.c      ****     }
  93:.\main.c      **** 
  94:.\main.c      **** }
 280              		.loc 1 94 0
 281 008e BD46     		mov	sp, r7
 282              		@ sp needed for prologue
 283 0090 80BD     		pop	{r7, pc}
 284              	.L15:
 285 0092 C046     		.align	2
 286              	.L14:
 287 0094 0C000000 		.word	cpt2.5418
 288 0098 10000000 		.word	cmp2.5419
 289 009c 48260000 		.word	9800
 290 00a0 44010000 		.word	updown2.5420
 291 00a4 01000080 		.word	-2147483647
 292 00a8 AC260000 		.word	9900
 293              		.cfi_endproc
 294              	.LFE34:
 295              		.size	InterruptHandler2, .-InterruptHandler2
 296              		.section	.text.InterruptHandler3,"ax",%progbits
 297              		.align	2
 298              		.global	InterruptHandler3
 299              		.code	16
 300              		.thumb_func
 301              		.type	InterruptHandler3, %function
 302              	InterruptHandler3:
 303              	.LFB35:
  95:.\main.c      **** 
  96:.\main.c      **** CY_ISR(InterruptHandler3)
  97:.\main.c      **** {
ARM GAS  C:\Users\Cedric\AppData\Local\Temp\cczZ6omP.s 			page 9


 304              		.loc 1 97 0
 305              		.cfi_startproc
 306 0000 80B5     		push	{r7, lr}
 307              	.LCFI4:
 308              		.cfi_def_cfa_offset 8
 309              		.cfi_offset 7, -8
 310              		.cfi_offset 14, -4
 311 0002 00AF     		add	r7, sp, #0
 312              	.LCFI5:
 313              		.cfi_def_cfa_register 7
  98:.\main.c      **** 	static int cpt3=0;
  99:.\main.c      **** 	static int cmp3=0;
 100:.\main.c      ****     static int updown3=1;
 101:.\main.c      ****     
 102:.\main.c      ****     cpt3=(cpt3+1)%period3;
 314              		.loc 1 102 0
 315 0004 234B     		ldr	r3, .L21
 316 0006 1B68     		ldr	r3, [r3]
 317 0008 0133     		add	r3, r3, #1
 318 000a 181C     		mov	r0, r3
 319 000c 0921     		mov	r1, #9
 320 000e FFF7FEFF 		bl	__aeabi_idivmod
 321 0012 0B1C     		mov	r3, r1
 322 0014 1A1C     		mov	r2, r3
 323 0016 1F4B     		ldr	r3, .L21
 324 0018 1A60     		str	r2, [r3]
 103:.\main.c      **** //    /* Clear TC Inerrupt */
 104:.\main.c      ****    	PWM_3_ClearInterrupt(PWM_3_INTR_MASK_TC);
 325              		.loc 1 104 0
 326 001a 0120     		mov	r0, #1
 327 001c FFF7FEFF 		bl	PWM_3_ClearInterrupt
 105:.\main.c      **** //    
 106:.\main.c      **** //	/* Increment the Compare for LED brighrness decrease */ 
 107:.\main.c      ****     if (cpt3==0){
 328              		.loc 1 107 0
 329 0020 1C4B     		ldr	r3, .L21
 330 0022 1B68     		ldr	r3, [r3]
 331 0024 002B     		cmp	r3, #0
 332 0026 32D1     		bne	.L16
 108:.\main.c      ****         cmp3 = (cmp3+2) %period;
 333              		.loc 1 108 0
 334 0028 1B4B     		ldr	r3, .L21+4
 335 002a 1B68     		ldr	r3, [r3]
 336 002c 0233     		add	r3, r3, #2
 337 002e 181C     		mov	r0, r3
 338 0030 1A49     		ldr	r1, .L21+8
 339 0032 FFF7FEFF 		bl	__aeabi_idivmod
 340 0036 0B1C     		mov	r3, r1
 341 0038 1A1C     		mov	r2, r3
 342 003a 174B     		ldr	r3, .L21+4
 343 003c 1A60     		str	r2, [r3]
 109:.\main.c      ****         if(cmp3==0){
 344              		.loc 1 109 0
 345 003e 164B     		ldr	r3, .L21+4
 346 0040 1B68     		ldr	r3, [r3]
 347 0042 002B     		cmp	r3, #0
 348 0044 0DD1     		bne	.L18
ARM GAS  C:\Users\Cedric\AppData\Local\Temp\cczZ6omP.s 			page 10


 110:.\main.c      ****             updown3=(updown3+1)%2;
 349              		.loc 1 110 0
 350 0046 164B     		ldr	r3, .L21+12
 351 0048 1B68     		ldr	r3, [r3]
 352 004a 5A1C     		add	r2, r3, #1
 353 004c 154B     		ldr	r3, .L21+16
 354 004e 1340     		and	r3, r2
 355 0050 04D5     		bpl	.L19
 356 0052 013B     		sub	r3, r3, #1
 357 0054 0222     		mov	r2, #2
 358 0056 5242     		neg	r2, r2
 359 0058 1343     		orr	r3, r2
 360 005a 0133     		add	r3, r3, #1
 361              	.L19:
 362 005c 1A1C     		mov	r2, r3
 363 005e 104B     		ldr	r3, .L21+12
 364 0060 1A60     		str	r2, [r3]
 365              	.L18:
 111:.\main.c      ****         }
 112:.\main.c      ****         if(updown3==1){
 366              		.loc 1 112 0
 367 0062 0F4B     		ldr	r3, .L21+12
 368 0064 1B68     		ldr	r3, [r3]
 369 0066 012B     		cmp	r3, #1
 370 0068 06D1     		bne	.L20
 113:.\main.c      ****             PWM_3_WriteCompare(100+cmp3);
 371              		.loc 1 113 0
 372 006a 0B4B     		ldr	r3, .L21+4
 373 006c 1B68     		ldr	r3, [r3]
 374 006e 6433     		add	r3, r3, #100
 375 0070 181C     		mov	r0, r3
 376 0072 FFF7FEFF 		bl	PWM_3_WriteCompare
 377 0076 0AE0     		b	.L16
 378              	.L20:
 114:.\main.c      ****         }
 115:.\main.c      ****         else if(updown3==0){
 379              		.loc 1 115 0
 380 0078 094B     		ldr	r3, .L21+12
 381 007a 1B68     		ldr	r3, [r3]
 382 007c 002B     		cmp	r3, #0
 383 007e 06D1     		bne	.L16
 116:.\main.c      ****             PWM_3_WriteCompare(100+period-cmp3);
 384              		.loc 1 116 0
 385 0080 054B     		ldr	r3, .L21+4
 386 0082 1B68     		ldr	r3, [r3]
 387 0084 084A     		ldr	r2, .L21+20
 388 0086 D31A     		sub	r3, r2, r3
 389 0088 181C     		mov	r0, r3
 390 008a FFF7FEFF 		bl	PWM_3_WriteCompare
 391              	.L16:
 117:.\main.c      ****         }
 118:.\main.c      ****     }
 119:.\main.c      **** 
 120:.\main.c      **** }
 392              		.loc 1 120 0
 393 008e BD46     		mov	sp, r7
 394              		@ sp needed for prologue
ARM GAS  C:\Users\Cedric\AppData\Local\Temp\cczZ6omP.s 			page 11


 395 0090 80BD     		pop	{r7, pc}
 396              	.L22:
 397 0092 C046     		.align	2
 398              	.L21:
 399 0094 04000000 		.word	cpt3.5424
 400 0098 08000000 		.word	cmp3.5425
 401 009c 48260000 		.word	9800
 402 00a0 40010000 		.word	updown3.5426
 403 00a4 01000080 		.word	-2147483647
 404 00a8 AC260000 		.word	9900
 405              		.cfi_endproc
 406              	.LFE35:
 407              		.size	InterruptHandler3, .-InterruptHandler3
 408              		.section	.text.InterruptHandler4,"ax",%progbits
 409              		.align	2
 410              		.global	InterruptHandler4
 411              		.code	16
 412              		.thumb_func
 413              		.type	InterruptHandler4, %function
 414              	InterruptHandler4:
 415              	.LFB36:
 121:.\main.c      **** 
 122:.\main.c      **** CY_ISR(InterruptHandler4)
 123:.\main.c      **** {
 416              		.loc 1 123 0
 417              		.cfi_startproc
 418 0000 80B5     		push	{r7, lr}
 419              	.LCFI6:
 420              		.cfi_def_cfa_offset 8
 421              		.cfi_offset 7, -8
 422              		.cfi_offset 14, -4
 423 0002 00AF     		add	r7, sp, #0
 424              	.LCFI7:
 425              		.cfi_def_cfa_register 7
 124:.\main.c      ****     static int i=0;
 125:.\main.c      ****     
 126:.\main.c      ****     TIM_4_ClearInterrupt(TIM_4__INTR_MASK_TC);
 426              		.loc 1 126 0
 427 0004 0120     		mov	r0, #1
 428 0006 FFF7FEFF 		bl	TIM_4_ClearInterrupt
 127:.\main.c      ****     
 128:.\main.c      ****     LCD_Char_1_ClearDisplay();
 429              		.loc 1 128 0
 430 000a 0120     		mov	r0, #1
 431 000c FFF7FEFF 		bl	LCD_Char_1_WriteControl
 129:.\main.c      **** 
 130:.\main.c      ****     LCD_Char_1_PrintString(messagesl1[i]);
 432              		.loc 1 130 0
 433 0010 104B     		ldr	r3, .L24
 434 0012 1B68     		ldr	r3, [r3]
 435 0014 1A01     		lsl	r2, r3, #4
 436 0016 104B     		ldr	r3, .L24+4
 437 0018 D318     		add	r3, r2, r3
 438 001a 181C     		mov	r0, r3
 439 001c FFF7FEFF 		bl	LCD_Char_1_PrintString
 131:.\main.c      ****     LCD_Char_1_Position(1u, 0u);
 440              		.loc 1 131 0
ARM GAS  C:\Users\Cedric\AppData\Local\Temp\cczZ6omP.s 			page 12


 441 0020 0120     		mov	r0, #1
 442 0022 0021     		mov	r1, #0
 443 0024 FFF7FEFF 		bl	LCD_Char_1_Position
 132:.\main.c      ****     LCD_Char_1_PrintString(messagesl2[i]);
 444              		.loc 1 132 0
 445 0028 0A4B     		ldr	r3, .L24
 446 002a 1B68     		ldr	r3, [r3]
 447 002c 1A01     		lsl	r2, r3, #4
 448 002e 0B4B     		ldr	r3, .L24+8
 449 0030 D318     		add	r3, r2, r3
 450 0032 181C     		mov	r0, r3
 451 0034 FFF7FEFF 		bl	LCD_Char_1_PrintString
 133:.\main.c      **** 
 134:.\main.c      ****     i=(i+1)%nbmessages;
 452              		.loc 1 134 0
 453 0038 064B     		ldr	r3, .L24
 454 003a 1B68     		ldr	r3, [r3]
 455 003c 0133     		add	r3, r3, #1
 456 003e 181C     		mov	r0, r3
 457 0040 0A21     		mov	r1, #10
 458 0042 FFF7FEFF 		bl	__aeabi_idivmod
 459 0046 0B1C     		mov	r3, r1
 460 0048 1A1C     		mov	r2, r3
 461 004a 024B     		ldr	r3, .L24
 462 004c 1A60     		str	r2, [r3]
 135:.\main.c      **** 
 136:.\main.c      **** 
 137:.\main.c      **** }
 463              		.loc 1 137 0
 464 004e BD46     		mov	sp, r7
 465              		@ sp needed for prologue
 466 0050 80BD     		pop	{r7, pc}
 467              	.L25:
 468 0052 C046     		.align	2
 469              	.L24:
 470 0054 00000000 		.word	i.5430
 471 0058 00000000 		.word	messagesl1
 472 005c 00000000 		.word	messagesl2
 473              		.cfi_endproc
 474              	.LFE36:
 475              		.size	InterruptHandler4, .-InterruptHandler4
 476              		.section	.rodata
 477              		.align	2
 478              	.LC16:
 479 0000 20204D61 		.ascii	"  Made by ARES  \000"
 479      64652062 
 479      79204152 
 479      45532020 
 479      00
 480 0011 000000   		.align	2
 481              	.LC18:
 482 0014 204A7573 		.ascii	" Just for U \000"
 482      7420666F 
 482      72205520 
 482      00
 483 0021 000000   		.section	.text.main,"ax",%progbits
 484              		.align	2
ARM GAS  C:\Users\Cedric\AppData\Local\Temp\cczZ6omP.s 			page 13


 485              		.global	main
 486              		.code	16
 487              		.thumb_func
 488              		.type	main, %function
 489              	main:
 490              	.LFB37:
 138:.\main.c      **** 
 139:.\main.c      **** int main()
 140:.\main.c      **** {
 491              		.loc 1 140 0
 492              		.cfi_startproc
 493 0000 80B5     		push	{r7, lr}
 494              	.LCFI8:
 495              		.cfi_def_cfa_offset 8
 496              		.cfi_offset 7, -8
 497              		.cfi_offset 14, -4
 498 0002 00AF     		add	r7, sp, #0
 499              	.LCFI9:
 500              		.cfi_def_cfa_register 7
 141:.\main.c      ****     //allow global interrupt
 142:.\main.c      ****     CyGlobalIntEnable;
 501              		.loc 1 142 0
 502              	@ 142 ".\main.c" 1
 503 0004 62B6     		CPSIE   i
 504              	@ 0 "" 2
 143:.\main.c      ****  
 144:.\main.c      ****     /* Enable the Interrupt component connected to interrupt */
 145:.\main.c      ****     
 146:.\main.c      ****     TC1_ISR_StartEx(InterruptHandler1);
 505              		.loc 1 146 0
 506              		.code	16
 507 0006 154B     		ldr	r3, .L28
 508 0008 181C     		mov	r0, r3
 509 000a FFF7FEFF 		bl	TC1_ISR_StartEx
 147:.\main.c      ****     TC2_ISR_StartEx(InterruptHandler2);
 510              		.loc 1 147 0
 511 000e 144B     		ldr	r3, .L28+4
 512 0010 181C     		mov	r0, r3
 513 0012 FFF7FEFF 		bl	TC2_ISR_StartEx
 148:.\main.c      ****     TC3_ISR_StartEx(InterruptHandler3);
 514              		.loc 1 148 0
 515 0016 134B     		ldr	r3, .L28+8
 516 0018 181C     		mov	r0, r3
 517 001a FFF7FEFF 		bl	TC3_ISR_StartEx
 149:.\main.c      ****     TC4_ISR_StartEx(InterruptHandler4);
 518              		.loc 1 149 0
 519 001e 124B     		ldr	r3, .L28+12
 520 0020 181C     		mov	r0, r3
 521 0022 FFF7FEFF 		bl	TC4_ISR_StartEx
 150:.\main.c      ****     
 151:.\main.c      ****     //initialisation LCD
 152:.\main.c      ****     LCD_Char_1_Start();
 522              		.loc 1 152 0
 523 0026 FFF7FEFF 		bl	LCD_Char_1_Start
 153:.\main.c      **** 
 154:.\main.c      ****     
 155:.\main.c      ****     /* Initialisation affichage */
ARM GAS  C:\Users\Cedric\AppData\Local\Temp\cczZ6omP.s 			page 14


 156:.\main.c      ****     LCD_Char_1_Position(0u, 0u);
 524              		.loc 1 156 0
 525 002a 0020     		mov	r0, #0
 526 002c 0021     		mov	r1, #0
 527 002e FFF7FEFF 		bl	LCD_Char_1_Position
 157:.\main.c      ****     LCD_Char_1_PrintString("  Made by ARES  ");
 528              		.loc 1 157 0
 529 0032 0E4B     		ldr	r3, .L28+16
 530 0034 181C     		mov	r0, r3
 531 0036 FFF7FEFF 		bl	LCD_Char_1_PrintString
 158:.\main.c      ****     LCD_Char_1_Position(1u, 0u);
 532              		.loc 1 158 0
 533 003a 0120     		mov	r0, #1
 534 003c 0021     		mov	r1, #0
 535 003e FFF7FEFF 		bl	LCD_Char_1_Position
 159:.\main.c      ****     LCD_Char_1_PrintString(" Just for U ");
 536              		.loc 1 159 0
 537 0042 0B4B     		ldr	r3, .L28+20
 538 0044 181C     		mov	r0, r3
 539 0046 FFF7FEFF 		bl	LCD_Char_1_PrintString
 160:.\main.c      **** 
 161:.\main.c      ****  
 162:.\main.c      **** 
 163:.\main.c      ****     //initialisation des PWMs 
 164:.\main.c      ****     PWM_1_Start();
 540              		.loc 1 164 0
 541 004a FFF7FEFF 		bl	PWM_1_Start
 165:.\main.c      ****     PWM_3_Start();
 542              		.loc 1 165 0
 543 004e FFF7FEFF 		bl	PWM_3_Start
 166:.\main.c      ****     PWM_2_Start();
 544              		.loc 1 166 0
 545 0052 FFF7FEFF 		bl	PWM_2_Start
 167:.\main.c      ****     TIM_4_Start();
 546              		.loc 1 167 0
 547 0056 FFF7FEFF 		bl	TIM_4_Start
 548              	.L27:
 168:.\main.c      **** 
 169:.\main.c      ****     
 170:.\main.c      **** 
 171:.\main.c      **** 
 172:.\main.c      ****     for(;;)
 173:.\main.c      ****     {   
 174:.\main.c      ****     }
 549              		.loc 1 174 0 discriminator 1
 550 005a FEE7     		b	.L27
 551              	.L29:
 552              		.align	2
 553              	.L28:
 554 005c 00000000 		.word	InterruptHandler1
 555 0060 00000000 		.word	InterruptHandler2
 556 0064 00000000 		.word	InterruptHandler3
 557 0068 00000000 		.word	InterruptHandler4
 558 006c 00000000 		.word	.LC16
 559 0070 14000000 		.word	.LC18
 560              		.cfi_endproc
 561              	.LFE37:
ARM GAS  C:\Users\Cedric\AppData\Local\Temp\cczZ6omP.s 			page 15


 562              		.size	main, .-main
 563              		.bss
 564              		.align	2
 565              	i.5430:
 566 0000 00000000 		.space	4
 567              		.align	2
 568              	cpt3.5424:
 569 0004 00000000 		.space	4
 570              		.align	2
 571              	cmp3.5425:
 572 0008 00000000 		.space	4
 573              		.data
 574              		.align	2
 575              		.type	updown3.5426, %object
 576              		.size	updown3.5426, 4
 577              	updown3.5426:
 578 0140 01000000 		.word	1
 579              		.bss
 580              		.align	2
 581              	cpt2.5418:
 582 000c 00000000 		.space	4
 583              		.align	2
 584              	cmp2.5419:
 585 0010 00000000 		.space	4
 586              		.data
 587              		.align	2
 588              		.type	updown2.5420, %object
 589              		.size	updown2.5420, 4
 590              	updown2.5420:
 591 0144 01000000 		.word	1
 592              		.bss
 593              		.align	2
 594              	cpt1.5412:
 595 0014 00000000 		.space	4
 596              		.align	2
 597              	cmp1.5413:
 598 0018 00000000 		.space	4
 599              		.data
 600              		.align	2
 601              		.type	updown1.5414, %object
 602              		.size	updown1.5414, 4
 603              	updown1.5414:
 604 0148 01000000 		.word	1
 605              		.text
 606              	.Letext0:
 607              		.file 2 "./Generated_Source/PSoC4/cytypes.h"